
SensorNode.elf:     file format elf32-littlearm

Sections:
Idx Name          Size      VMA       LMA       File off  Algn
  0 .isr_vector   0000010c  08000000  08000000  00010000  2**0
                  CONTENTS, ALLOC, LOAD, READONLY, DATA
  1 .text         00004540  08000110  08000110  00010110  2**3
                  CONTENTS, ALLOC, LOAD, READONLY, CODE
  2 .rodata       00000080  08004650  08004650  00014650  2**0
                  CONTENTS, ALLOC, LOAD, READONLY, DATA
  3 .ARM.extab    00000000  080046d0  080046d0  0002006c  2**0
                  CONTENTS
  4 .ARM          00000000  080046d0  080046d0  0002006c  2**0
                  CONTENTS
  5 .preinit_array 00000000  080046d0  080046d0  0002006c  2**0
                  CONTENTS, ALLOC, LOAD, DATA
  6 .init_array   00000004  080046d0  080046d0  000146d0  2**2
                  CONTENTS, ALLOC, LOAD, DATA
  7 .fini_array   00000004  080046d4  080046d4  000146d4  2**2
                  CONTENTS, ALLOC, LOAD, DATA
  8 .data         0000006c  20000000  080046d8  00020000  2**2
                  CONTENTS, ALLOC, LOAD, DATA
  9 .bss          00000338  2000006c  08004744  0002006c  2**2
                  ALLOC
 10 ._user_heap_stack 00000604  200003a4  08004744  000203a4  2**0
                  ALLOC
 11 .ARM.attributes 00000029  00000000  00000000  0002006c  2**0
                  CONTENTS, READONLY
 12 .comment      00000043  00000000  00000000  00020095  2**0
                  CONTENTS, READONLY
 13 .debug_frame  00000ae0  00000000  00000000  000200d8  2**2
                  CONTENTS, READONLY, DEBUGGING, OCTETS

Disassembly of section .text:

08000110 <__do_global_dtors_aux>:
 8000110:	b510      	push	{r4, lr}
 8000112:	4c05      	ldr	r4, [pc, #20]	; (8000128 <__do_global_dtors_aux+0x18>)
 8000114:	7823      	ldrb	r3, [r4, #0]
 8000116:	b933      	cbnz	r3, 8000126 <__do_global_dtors_aux+0x16>
 8000118:	4b04      	ldr	r3, [pc, #16]	; (800012c <__do_global_dtors_aux+0x1c>)
 800011a:	b113      	cbz	r3, 8000122 <__do_global_dtors_aux+0x12>
 800011c:	4804      	ldr	r0, [pc, #16]	; (8000130 <__do_global_dtors_aux+0x20>)
 800011e:	f3af 8000 	nop.w
 8000122:	2301      	movs	r3, #1
 8000124:	7023      	strb	r3, [r4, #0]
 8000126:	bd10      	pop	{r4, pc}
 8000128:	2000006c 	.word	0x2000006c
 800012c:	00000000 	.word	0x00000000
 8000130:	08004638 	.word	0x08004638

08000134 <frame_dummy>:
 8000134:	b508      	push	{r3, lr}
 8000136:	4b03      	ldr	r3, [pc, #12]	; (8000144 <frame_dummy+0x10>)
 8000138:	b11b      	cbz	r3, 8000142 <frame_dummy+0xe>
 800013a:	4903      	ldr	r1, [pc, #12]	; (8000148 <frame_dummy+0x14>)
 800013c:	4803      	ldr	r0, [pc, #12]	; (800014c <frame_dummy+0x18>)
 800013e:	f3af 8000 	nop.w
 8000142:	bd08      	pop	{r3, pc}
 8000144:	00000000 	.word	0x00000000
 8000148:	20000070 	.word	0x20000070
 800014c:	08004638 	.word	0x08004638

08000150 <__aeabi_fmul>:
 8000150:	f04f 0cff 	mov.w	ip, #255	; 0xff
 8000154:	ea1c 52d0 	ands.w	r2, ip, r0, lsr #23
 8000158:	bf1e      	ittt	ne
 800015a:	ea1c 53d1 	andsne.w	r3, ip, r1, lsr #23
 800015e:	ea92 0f0c 	teqne	r2, ip
 8000162:	ea93 0f0c 	teqne	r3, ip
 8000166:	d06f      	beq.n	8000248 <__aeabi_fmul+0xf8>
 8000168:	441a      	add	r2, r3
 800016a:	ea80 0c01 	eor.w	ip, r0, r1
 800016e:	0240      	lsls	r0, r0, #9
 8000170:	bf18      	it	ne
 8000172:	ea5f 2141 	movsne.w	r1, r1, lsl #9
 8000176:	d01e      	beq.n	80001b6 <__aeabi_fmul+0x66>
 8000178:	f04f 6300 	mov.w	r3, #134217728	; 0x8000000
 800017c:	ea43 1050 	orr.w	r0, r3, r0, lsr #5
 8000180:	ea43 1151 	orr.w	r1, r3, r1, lsr #5
 8000184:	fba0 3101 	umull	r3, r1, r0, r1
 8000188:	f00c 4000 	and.w	r0, ip, #2147483648	; 0x80000000
 800018c:	f5b1 0f00 	cmp.w	r1, #8388608	; 0x800000
 8000190:	bf3e      	ittt	cc
 8000192:	0049      	lslcc	r1, r1, #1
 8000194:	ea41 71d3 	orrcc.w	r1, r1, r3, lsr #31
 8000198:	005b      	lslcc	r3, r3, #1
 800019a:	ea40 0001 	orr.w	r0, r0, r1
 800019e:	f162 027f 	sbc.w	r2, r2, #127	; 0x7f
 80001a2:	2afd      	cmp	r2, #253	; 0xfd
 80001a4:	d81d      	bhi.n	80001e2 <__aeabi_fmul+0x92>
 80001a6:	f1b3 4f00 	cmp.w	r3, #2147483648	; 0x80000000
 80001aa:	eb40 50c2 	adc.w	r0, r0, r2, lsl #23
 80001ae:	bf08      	it	eq
 80001b0:	f020 0001 	biceq.w	r0, r0, #1
 80001b4:	4770      	bx	lr
 80001b6:	f090 0f00 	teq	r0, #0
 80001ba:	f00c 4c00 	and.w	ip, ip, #2147483648	; 0x80000000
 80001be:	bf08      	it	eq
 80001c0:	0249      	lsleq	r1, r1, #9
 80001c2:	ea4c 2050 	orr.w	r0, ip, r0, lsr #9
 80001c6:	ea40 2051 	orr.w	r0, r0, r1, lsr #9
 80001ca:	3a7f      	subs	r2, #127	; 0x7f
 80001cc:	bfc2      	ittt	gt
 80001ce:	f1d2 03ff 	rsbsgt	r3, r2, #255	; 0xff
 80001d2:	ea40 50c2 	orrgt.w	r0, r0, r2, lsl #23
 80001d6:	4770      	bxgt	lr
 80001d8:	f440 0000 	orr.w	r0, r0, #8388608	; 0x800000
 80001dc:	f04f 0300 	mov.w	r3, #0
 80001e0:	3a01      	subs	r2, #1
 80001e2:	dc5d      	bgt.n	80002a0 <__aeabi_fmul+0x150>
 80001e4:	f112 0f19 	cmn.w	r2, #25
 80001e8:	bfdc      	itt	le
 80001ea:	f000 4000 	andle.w	r0, r0, #2147483648	; 0x80000000
 80001ee:	4770      	bxle	lr
 80001f0:	f1c2 0200 	rsb	r2, r2, #0
 80001f4:	0041      	lsls	r1, r0, #1
 80001f6:	fa21 f102 	lsr.w	r1, r1, r2
 80001fa:	f1c2 0220 	rsb	r2, r2, #32
 80001fe:	fa00 fc02 	lsl.w	ip, r0, r2
 8000202:	ea5f 0031 	movs.w	r0, r1, rrx
 8000206:	f140 0000 	adc.w	r0, r0, #0
 800020a:	ea53 034c 	orrs.w	r3, r3, ip, lsl #1
 800020e:	bf08      	it	eq
 8000210:	ea20 70dc 	biceq.w	r0, r0, ip, lsr #31
 8000214:	4770      	bx	lr
 8000216:	f092 0f00 	teq	r2, #0
 800021a:	f000 4c00 	and.w	ip, r0, #2147483648	; 0x80000000
 800021e:	bf02      	ittt	eq
 8000220:	0040      	lsleq	r0, r0, #1
 8000222:	f410 0f00 	tsteq.w	r0, #8388608	; 0x800000
 8000226:	3a01      	subeq	r2, #1
 8000228:	d0f9      	beq.n	800021e <__aeabi_fmul+0xce>
 800022a:	ea40 000c 	orr.w	r0, r0, ip
 800022e:	f093 0f00 	teq	r3, #0
 8000232:	f001 4c00 	and.w	ip, r1, #2147483648	; 0x80000000
 8000236:	bf02      	ittt	eq
 8000238:	0049      	lsleq	r1, r1, #1
 800023a:	f411 0f00 	tsteq.w	r1, #8388608	; 0x800000
 800023e:	3b01      	subeq	r3, #1
 8000240:	d0f9      	beq.n	8000236 <__aeabi_fmul+0xe6>
 8000242:	ea41 010c 	orr.w	r1, r1, ip
 8000246:	e78f      	b.n	8000168 <__aeabi_fmul+0x18>
 8000248:	ea0c 53d1 	and.w	r3, ip, r1, lsr #23
 800024c:	ea92 0f0c 	teq	r2, ip
 8000250:	bf18      	it	ne
 8000252:	ea93 0f0c 	teqne	r3, ip
 8000256:	d00a      	beq.n	800026e <__aeabi_fmul+0x11e>
 8000258:	f030 4c00 	bics.w	ip, r0, #2147483648	; 0x80000000
 800025c:	bf18      	it	ne
 800025e:	f031 4c00 	bicsne.w	ip, r1, #2147483648	; 0x80000000
 8000262:	d1d8      	bne.n	8000216 <__aeabi_fmul+0xc6>
 8000264:	ea80 0001 	eor.w	r0, r0, r1
 8000268:	f000 4000 	and.w	r0, r0, #2147483648	; 0x80000000
 800026c:	4770      	bx	lr
 800026e:	f090 0f00 	teq	r0, #0
 8000272:	bf17      	itett	ne
 8000274:	f090 4f00 	teqne	r0, #2147483648	; 0x80000000
 8000278:	4608      	moveq	r0, r1
 800027a:	f091 0f00 	teqne	r1, #0
 800027e:	f091 4f00 	teqne	r1, #2147483648	; 0x80000000
 8000282:	d014      	beq.n	80002ae <__aeabi_fmul+0x15e>
 8000284:	ea92 0f0c 	teq	r2, ip
 8000288:	d101      	bne.n	800028e <__aeabi_fmul+0x13e>
 800028a:	0242      	lsls	r2, r0, #9
 800028c:	d10f      	bne.n	80002ae <__aeabi_fmul+0x15e>
 800028e:	ea93 0f0c 	teq	r3, ip
 8000292:	d103      	bne.n	800029c <__aeabi_fmul+0x14c>
 8000294:	024b      	lsls	r3, r1, #9
 8000296:	bf18      	it	ne
 8000298:	4608      	movne	r0, r1
 800029a:	d108      	bne.n	80002ae <__aeabi_fmul+0x15e>
 800029c:	ea80 0001 	eor.w	r0, r0, r1
 80002a0:	f000 4000 	and.w	r0, r0, #2147483648	; 0x80000000
 80002a4:	f040 40fe 	orr.w	r0, r0, #2130706432	; 0x7f000000
 80002a8:	f440 0000 	orr.w	r0, r0, #8388608	; 0x800000
 80002ac:	4770      	bx	lr
 80002ae:	f040 40fe 	orr.w	r0, r0, #2130706432	; 0x7f000000
 80002b2:	f440 0040 	orr.w	r0, r0, #12582912	; 0xc00000
 80002b6:	4770      	bx	lr

080002b8 <__aeabi_drsub>:
 80002b8:	f081 4100 	eor.w	r1, r1, #2147483648	; 0x80000000
 80002bc:	e002      	b.n	80002c4 <__adddf3>
 80002be:	bf00      	nop

080002c0 <__aeabi_dsub>:
 80002c0:	f083 4300 	eor.w	r3, r3, #2147483648	; 0x80000000

080002c4 <__adddf3>:
 80002c4:	b530      	push	{r4, r5, lr}
 80002c6:	ea4f 0441 	mov.w	r4, r1, lsl #1
 80002ca:	ea4f 0543 	mov.w	r5, r3, lsl #1
 80002ce:	ea94 0f05 	teq	r4, r5
 80002d2:	bf08      	it	eq
 80002d4:	ea90 0f02 	teqeq	r0, r2
 80002d8:	bf1f      	itttt	ne
 80002da:	ea54 0c00 	orrsne.w	ip, r4, r0
 80002de:	ea55 0c02 	orrsne.w	ip, r5, r2
 80002e2:	ea7f 5c64 	mvnsne.w	ip, r4, asr #21
 80002e6:	ea7f 5c65 	mvnsne.w	ip, r5, asr #21
 80002ea:	f000 80e2 	beq.w	80004b2 <__adddf3+0x1ee>
 80002ee:	ea4f 5454 	mov.w	r4, r4, lsr #21
 80002f2:	ebd4 5555 	rsbs	r5, r4, r5, lsr #21
 80002f6:	bfb8      	it	lt
 80002f8:	426d      	neglt	r5, r5
 80002fa:	dd0c      	ble.n	8000316 <__adddf3+0x52>
 80002fc:	442c      	add	r4, r5
 80002fe:	ea80 0202 	eor.w	r2, r0, r2
 8000302:	ea81 0303 	eor.w	r3, r1, r3
 8000306:	ea82 0000 	eor.w	r0, r2, r0
 800030a:	ea83 0101 	eor.w	r1, r3, r1
 800030e:	ea80 0202 	eor.w	r2, r0, r2
 8000312:	ea81 0303 	eor.w	r3, r1, r3
 8000316:	2d36      	cmp	r5, #54	; 0x36
 8000318:	bf88      	it	hi
 800031a:	bd30      	pophi	{r4, r5, pc}
 800031c:	f011 4f00 	tst.w	r1, #2147483648	; 0x80000000
 8000320:	ea4f 3101 	mov.w	r1, r1, lsl #12
 8000324:	f44f 1c80 	mov.w	ip, #1048576	; 0x100000
 8000328:	ea4c 3111 	orr.w	r1, ip, r1, lsr #12
 800032c:	d002      	beq.n	8000334 <__adddf3+0x70>
 800032e:	4240      	negs	r0, r0
 8000330:	eb61 0141 	sbc.w	r1, r1, r1, lsl #1
 8000334:	f013 4f00 	tst.w	r3, #2147483648	; 0x80000000
 8000338:	ea4f 3303 	mov.w	r3, r3, lsl #12
 800033c:	ea4c 3313 	orr.w	r3, ip, r3, lsr #12
 8000340:	d002      	beq.n	8000348 <__adddf3+0x84>
 8000342:	4252      	negs	r2, r2
 8000344:	eb63 0343 	sbc.w	r3, r3, r3, lsl #1
 8000348:	ea94 0f05 	teq	r4, r5
 800034c:	f000 80a7 	beq.w	800049e <__adddf3+0x1da>
 8000350:	f1a4 0401 	sub.w	r4, r4, #1
 8000354:	f1d5 0e20 	rsbs	lr, r5, #32
 8000358:	db0d      	blt.n	8000376 <__adddf3+0xb2>
 800035a:	fa02 fc0e 	lsl.w	ip, r2, lr
 800035e:	fa22 f205 	lsr.w	r2, r2, r5
 8000362:	1880      	adds	r0, r0, r2
 8000364:	f141 0100 	adc.w	r1, r1, #0
 8000368:	fa03 f20e 	lsl.w	r2, r3, lr
 800036c:	1880      	adds	r0, r0, r2
 800036e:	fa43 f305 	asr.w	r3, r3, r5
 8000372:	4159      	adcs	r1, r3
 8000374:	e00e      	b.n	8000394 <__adddf3+0xd0>
 8000376:	f1a5 0520 	sub.w	r5, r5, #32
 800037a:	f10e 0e20 	add.w	lr, lr, #32
 800037e:	2a01      	cmp	r2, #1
 8000380:	fa03 fc0e 	lsl.w	ip, r3, lr
 8000384:	bf28      	it	cs
 8000386:	f04c 0c02 	orrcs.w	ip, ip, #2
 800038a:	fa43 f305 	asr.w	r3, r3, r5
 800038e:	18c0      	adds	r0, r0, r3
 8000390:	eb51 71e3 	adcs.w	r1, r1, r3, asr #31
 8000394:	f001 4500 	and.w	r5, r1, #2147483648	; 0x80000000
 8000398:	d507      	bpl.n	80003aa <__adddf3+0xe6>
 800039a:	f04f 0e00 	mov.w	lr, #0
 800039e:	f1dc 0c00 	rsbs	ip, ip, #0
 80003a2:	eb7e 0000 	sbcs.w	r0, lr, r0
 80003a6:	eb6e 0101 	sbc.w	r1, lr, r1
 80003aa:	f5b1 1f80 	cmp.w	r1, #1048576	; 0x100000
 80003ae:	d31b      	bcc.n	80003e8 <__adddf3+0x124>
 80003b0:	f5b1 1f00 	cmp.w	r1, #2097152	; 0x200000
 80003b4:	d30c      	bcc.n	80003d0 <__adddf3+0x10c>
 80003b6:	0849      	lsrs	r1, r1, #1
 80003b8:	ea5f 0030 	movs.w	r0, r0, rrx
 80003bc:	ea4f 0c3c 	mov.w	ip, ip, rrx
 80003c0:	f104 0401 	add.w	r4, r4, #1
 80003c4:	ea4f 5244 	mov.w	r2, r4, lsl #21
 80003c8:	f512 0f80 	cmn.w	r2, #4194304	; 0x400000
 80003cc:	f080 809a 	bcs.w	8000504 <__adddf3+0x240>
 80003d0:	f1bc 4f00 	cmp.w	ip, #2147483648	; 0x80000000
 80003d4:	bf08      	it	eq
 80003d6:	ea5f 0c50 	movseq.w	ip, r0, lsr #1
 80003da:	f150 0000 	adcs.w	r0, r0, #0
 80003de:	eb41 5104 	adc.w	r1, r1, r4, lsl #20
 80003e2:	ea41 0105 	orr.w	r1, r1, r5
 80003e6:	bd30      	pop	{r4, r5, pc}
 80003e8:	ea5f 0c4c 	movs.w	ip, ip, lsl #1
 80003ec:	4140      	adcs	r0, r0
 80003ee:	eb41 0101 	adc.w	r1, r1, r1
 80003f2:	3c01      	subs	r4, #1
 80003f4:	bf28      	it	cs
 80003f6:	f5b1 1f80 	cmpcs.w	r1, #1048576	; 0x100000
 80003fa:	d2e9      	bcs.n	80003d0 <__adddf3+0x10c>
 80003fc:	f091 0f00 	teq	r1, #0
 8000400:	bf04      	itt	eq
 8000402:	4601      	moveq	r1, r0
 8000404:	2000      	moveq	r0, #0
 8000406:	fab1 f381 	clz	r3, r1
 800040a:	bf08      	it	eq
 800040c:	3320      	addeq	r3, #32
 800040e:	f1a3 030b 	sub.w	r3, r3, #11
 8000412:	f1b3 0220 	subs.w	r2, r3, #32
 8000416:	da0c      	bge.n	8000432 <__adddf3+0x16e>
 8000418:	320c      	adds	r2, #12
 800041a:	dd08      	ble.n	800042e <__adddf3+0x16a>
 800041c:	f102 0c14 	add.w	ip, r2, #20
 8000420:	f1c2 020c 	rsb	r2, r2, #12
 8000424:	fa01 f00c 	lsl.w	r0, r1, ip
 8000428:	fa21 f102 	lsr.w	r1, r1, r2
 800042c:	e00c      	b.n	8000448 <__adddf3+0x184>
 800042e:	f102 0214 	add.w	r2, r2, #20
 8000432:	bfd8      	it	le
 8000434:	f1c2 0c20 	rsble	ip, r2, #32
 8000438:	fa01 f102 	lsl.w	r1, r1, r2
 800043c:	fa20 fc0c 	lsr.w	ip, r0, ip
 8000440:	bfdc      	itt	le
 8000442:	ea41 010c 	orrle.w	r1, r1, ip
 8000446:	4090      	lslle	r0, r2
 8000448:	1ae4      	subs	r4, r4, r3
 800044a:	bfa2      	ittt	ge
 800044c:	eb01 5104 	addge.w	r1, r1, r4, lsl #20
 8000450:	4329      	orrge	r1, r5
 8000452:	bd30      	popge	{r4, r5, pc}
 8000454:	ea6f 0404 	mvn.w	r4, r4
 8000458:	3c1f      	subs	r4, #31
 800045a:	da1c      	bge.n	8000496 <__adddf3+0x1d2>
 800045c:	340c      	adds	r4, #12
 800045e:	dc0e      	bgt.n	800047e <__adddf3+0x1ba>
 8000460:	f104 0414 	add.w	r4, r4, #20
 8000464:	f1c4 0220 	rsb	r2, r4, #32
 8000468:	fa20 f004 	lsr.w	r0, r0, r4
 800046c:	fa01 f302 	lsl.w	r3, r1, r2
 8000470:	ea40 0003 	orr.w	r0, r0, r3
 8000474:	fa21 f304 	lsr.w	r3, r1, r4
 8000478:	ea45 0103 	orr.w	r1, r5, r3
 800047c:	bd30      	pop	{r4, r5, pc}
 800047e:	f1c4 040c 	rsb	r4, r4, #12
 8000482:	f1c4 0220 	rsb	r2, r4, #32
 8000486:	fa20 f002 	lsr.w	r0, r0, r2
 800048a:	fa01 f304 	lsl.w	r3, r1, r4
 800048e:	ea40 0003 	orr.w	r0, r0, r3
 8000492:	4629      	mov	r1, r5
 8000494:	bd30      	pop	{r4, r5, pc}
 8000496:	fa21 f004 	lsr.w	r0, r1, r4
 800049a:	4629      	mov	r1, r5
 800049c:	bd30      	pop	{r4, r5, pc}
 800049e:	f094 0f00 	teq	r4, #0
 80004a2:	f483 1380 	eor.w	r3, r3, #1048576	; 0x100000
 80004a6:	bf06      	itte	eq
 80004a8:	f481 1180 	eoreq.w	r1, r1, #1048576	; 0x100000
 80004ac:	3401      	addeq	r4, #1
 80004ae:	3d01      	subne	r5, #1
 80004b0:	e74e      	b.n	8000350 <__adddf3+0x8c>
 80004b2:	ea7f 5c64 	mvns.w	ip, r4, asr #21
 80004b6:	bf18      	it	ne
 80004b8:	ea7f 5c65 	mvnsne.w	ip, r5, asr #21
 80004bc:	d029      	beq.n	8000512 <__adddf3+0x24e>
 80004be:	ea94 0f05 	teq	r4, r5
 80004c2:	bf08      	it	eq
 80004c4:	ea90 0f02 	teqeq	r0, r2
 80004c8:	d005      	beq.n	80004d6 <__adddf3+0x212>
 80004ca:	ea54 0c00 	orrs.w	ip, r4, r0
 80004ce:	bf04      	itt	eq
 80004d0:	4619      	moveq	r1, r3
 80004d2:	4610      	moveq	r0, r2
 80004d4:	bd30      	pop	{r4, r5, pc}
 80004d6:	ea91 0f03 	teq	r1, r3
 80004da:	bf1e      	ittt	ne
 80004dc:	2100      	movne	r1, #0
 80004de:	2000      	movne	r0, #0
 80004e0:	bd30      	popne	{r4, r5, pc}
 80004e2:	ea5f 5c54 	movs.w	ip, r4, lsr #21
 80004e6:	d105      	bne.n	80004f4 <__adddf3+0x230>
 80004e8:	0040      	lsls	r0, r0, #1
 80004ea:	4149      	adcs	r1, r1
 80004ec:	bf28      	it	cs
 80004ee:	f041 4100 	orrcs.w	r1, r1, #2147483648	; 0x80000000
 80004f2:	bd30      	pop	{r4, r5, pc}
 80004f4:	f514 0480 	adds.w	r4, r4, #4194304	; 0x400000
 80004f8:	bf3c      	itt	cc
 80004fa:	f501 1180 	addcc.w	r1, r1, #1048576	; 0x100000
 80004fe:	bd30      	popcc	{r4, r5, pc}
 8000500:	f001 4500 	and.w	r5, r1, #2147483648	; 0x80000000
 8000504:	f045 41fe 	orr.w	r1, r5, #2130706432	; 0x7f000000
 8000508:	f441 0170 	orr.w	r1, r1, #15728640	; 0xf00000
 800050c:	f04f 0000 	mov.w	r0, #0
 8000510:	bd30      	pop	{r4, r5, pc}
 8000512:	ea7f 5c64 	mvns.w	ip, r4, asr #21
 8000516:	bf1a      	itte	ne
 8000518:	4619      	movne	r1, r3
 800051a:	4610      	movne	r0, r2
 800051c:	ea7f 5c65 	mvnseq.w	ip, r5, asr #21
 8000520:	bf1c      	itt	ne
 8000522:	460b      	movne	r3, r1
 8000524:	4602      	movne	r2, r0
 8000526:	ea50 3401 	orrs.w	r4, r0, r1, lsl #12
 800052a:	bf06      	itte	eq
 800052c:	ea52 3503 	orrseq.w	r5, r2, r3, lsl #12
 8000530:	ea91 0f03 	teqeq	r1, r3
 8000534:	f441 2100 	orrne.w	r1, r1, #524288	; 0x80000
 8000538:	bd30      	pop	{r4, r5, pc}
 800053a:	bf00      	nop

0800053c <__aeabi_ui2d>:
 800053c:	f090 0f00 	teq	r0, #0
 8000540:	bf04      	itt	eq
 8000542:	2100      	moveq	r1, #0
 8000544:	4770      	bxeq	lr
 8000546:	b530      	push	{r4, r5, lr}
 8000548:	f44f 6480 	mov.w	r4, #1024	; 0x400
 800054c:	f104 0432 	add.w	r4, r4, #50	; 0x32
 8000550:	f04f 0500 	mov.w	r5, #0
 8000554:	f04f 0100 	mov.w	r1, #0
 8000558:	e750      	b.n	80003fc <__adddf3+0x138>
 800055a:	bf00      	nop

0800055c <__aeabi_i2d>:
 800055c:	f090 0f00 	teq	r0, #0
 8000560:	bf04      	itt	eq
 8000562:	2100      	moveq	r1, #0
 8000564:	4770      	bxeq	lr
 8000566:	b530      	push	{r4, r5, lr}
 8000568:	f44f 6480 	mov.w	r4, #1024	; 0x400
 800056c:	f104 0432 	add.w	r4, r4, #50	; 0x32
 8000570:	f010 4500 	ands.w	r5, r0, #2147483648	; 0x80000000
 8000574:	bf48      	it	mi
 8000576:	4240      	negmi	r0, r0
 8000578:	f04f 0100 	mov.w	r1, #0
 800057c:	e73e      	b.n	80003fc <__adddf3+0x138>
 800057e:	bf00      	nop

08000580 <__aeabi_f2d>:
 8000580:	0042      	lsls	r2, r0, #1
 8000582:	ea4f 01e2 	mov.w	r1, r2, asr #3
 8000586:	ea4f 0131 	mov.w	r1, r1, rrx
 800058a:	ea4f 7002 	mov.w	r0, r2, lsl #28
 800058e:	bf1f      	itttt	ne
 8000590:	f012 437f 	andsne.w	r3, r2, #4278190080	; 0xff000000
 8000594:	f093 4f7f 	teqne	r3, #4278190080	; 0xff000000
 8000598:	f081 5160 	eorne.w	r1, r1, #939524096	; 0x38000000
 800059c:	4770      	bxne	lr
 800059e:	f032 427f 	bics.w	r2, r2, #4278190080	; 0xff000000
 80005a2:	bf08      	it	eq
 80005a4:	4770      	bxeq	lr
 80005a6:	f093 4f7f 	teq	r3, #4278190080	; 0xff000000
 80005aa:	bf04      	itt	eq
 80005ac:	f441 2100 	orreq.w	r1, r1, #524288	; 0x80000
 80005b0:	4770      	bxeq	lr
 80005b2:	b530      	push	{r4, r5, lr}
 80005b4:	f44f 7460 	mov.w	r4, #896	; 0x380
 80005b8:	f001 4500 	and.w	r5, r1, #2147483648	; 0x80000000
 80005bc:	f021 4100 	bic.w	r1, r1, #2147483648	; 0x80000000
 80005c0:	e71c      	b.n	80003fc <__adddf3+0x138>
 80005c2:	bf00      	nop

080005c4 <__aeabi_ul2d>:
 80005c4:	ea50 0201 	orrs.w	r2, r0, r1
 80005c8:	bf08      	it	eq
 80005ca:	4770      	bxeq	lr
 80005cc:	b530      	push	{r4, r5, lr}
 80005ce:	f04f 0500 	mov.w	r5, #0
 80005d2:	e00a      	b.n	80005ea <__aeabi_l2d+0x16>

080005d4 <__aeabi_l2d>:
 80005d4:	ea50 0201 	orrs.w	r2, r0, r1
 80005d8:	bf08      	it	eq
 80005da:	4770      	bxeq	lr
 80005dc:	b530      	push	{r4, r5, lr}
 80005de:	f011 4500 	ands.w	r5, r1, #2147483648	; 0x80000000
 80005e2:	d502      	bpl.n	80005ea <__aeabi_l2d+0x16>
 80005e4:	4240      	negs	r0, r0
 80005e6:	eb61 0141 	sbc.w	r1, r1, r1, lsl #1
 80005ea:	f44f 6480 	mov.w	r4, #1024	; 0x400
 80005ee:	f104 0432 	add.w	r4, r4, #50	; 0x32
 80005f2:	ea5f 5c91 	movs.w	ip, r1, lsr #22
 80005f6:	f43f aed8 	beq.w	80003aa <__adddf3+0xe6>
 80005fa:	f04f 0203 	mov.w	r2, #3
 80005fe:	ea5f 0cdc 	movs.w	ip, ip, lsr #3
 8000602:	bf18      	it	ne
 8000604:	3203      	addne	r2, #3
 8000606:	ea5f 0cdc 	movs.w	ip, ip, lsr #3
 800060a:	bf18      	it	ne
 800060c:	3203      	addne	r2, #3
 800060e:	eb02 02dc 	add.w	r2, r2, ip, lsr #3
 8000612:	f1c2 0320 	rsb	r3, r2, #32
 8000616:	fa00 fc03 	lsl.w	ip, r0, r3
 800061a:	fa20 f002 	lsr.w	r0, r0, r2
 800061e:	fa01 fe03 	lsl.w	lr, r1, r3
 8000622:	ea40 000e 	orr.w	r0, r0, lr
 8000626:	fa21 f102 	lsr.w	r1, r1, r2
 800062a:	4414      	add	r4, r2
 800062c:	e6bd      	b.n	80003aa <__adddf3+0xe6>
 800062e:	bf00      	nop

08000630 <__gedf2>:
 8000630:	f04f 3cff 	mov.w	ip, #4294967295
 8000634:	e006      	b.n	8000644 <__cmpdf2+0x4>
 8000636:	bf00      	nop

08000638 <__ledf2>:
 8000638:	f04f 0c01 	mov.w	ip, #1
 800063c:	e002      	b.n	8000644 <__cmpdf2+0x4>
 800063e:	bf00      	nop

08000640 <__cmpdf2>:
 8000640:	f04f 0c01 	mov.w	ip, #1
 8000644:	f84d cd04 	str.w	ip, [sp, #-4]!
 8000648:	ea4f 0c41 	mov.w	ip, r1, lsl #1
 800064c:	ea7f 5c6c 	mvns.w	ip, ip, asr #21
 8000650:	ea4f 0c43 	mov.w	ip, r3, lsl #1
 8000654:	bf18      	it	ne
 8000656:	ea7f 5c6c 	mvnsne.w	ip, ip, asr #21
 800065a:	d01b      	beq.n	8000694 <__cmpdf2+0x54>
 800065c:	b001      	add	sp, #4
 800065e:	ea50 0c41 	orrs.w	ip, r0, r1, lsl #1
 8000662:	bf0c      	ite	eq
 8000664:	ea52 0c43 	orrseq.w	ip, r2, r3, lsl #1
 8000668:	ea91 0f03 	teqne	r1, r3
 800066c:	bf02      	ittt	eq
 800066e:	ea90 0f02 	teqeq	r0, r2
 8000672:	2000      	moveq	r0, #0
 8000674:	4770      	bxeq	lr
 8000676:	f110 0f00 	cmn.w	r0, #0
 800067a:	ea91 0f03 	teq	r1, r3
 800067e:	bf58      	it	pl
 8000680:	4299      	cmppl	r1, r3
 8000682:	bf08      	it	eq
 8000684:	4290      	cmpeq	r0, r2
 8000686:	bf2c      	ite	cs
 8000688:	17d8      	asrcs	r0, r3, #31
 800068a:	ea6f 70e3 	mvncc.w	r0, r3, asr #31
 800068e:	f040 0001 	orr.w	r0, r0, #1
 8000692:	4770      	bx	lr
 8000694:	ea4f 0c41 	mov.w	ip, r1, lsl #1
 8000698:	ea7f 5c6c 	mvns.w	ip, ip, asr #21
 800069c:	d102      	bne.n	80006a4 <__cmpdf2+0x64>
 800069e:	ea50 3c01 	orrs.w	ip, r0, r1, lsl #12
 80006a2:	d107      	bne.n	80006b4 <__cmpdf2+0x74>
 80006a4:	ea4f 0c43 	mov.w	ip, r3, lsl #1
 80006a8:	ea7f 5c6c 	mvns.w	ip, ip, asr #21
 80006ac:	d1d6      	bne.n	800065c <__cmpdf2+0x1c>
 80006ae:	ea52 3c03 	orrs.w	ip, r2, r3, lsl #12
 80006b2:	d0d3      	beq.n	800065c <__cmpdf2+0x1c>
 80006b4:	f85d 0b04 	ldr.w	r0, [sp], #4
 80006b8:	4770      	bx	lr
 80006ba:	bf00      	nop

080006bc <__aeabi_cdrcmple>:
 80006bc:	4684      	mov	ip, r0
 80006be:	4610      	mov	r0, r2
 80006c0:	4662      	mov	r2, ip
 80006c2:	468c      	mov	ip, r1
 80006c4:	4619      	mov	r1, r3
 80006c6:	4663      	mov	r3, ip
 80006c8:	e000      	b.n	80006cc <__aeabi_cdcmpeq>
 80006ca:	bf00      	nop

080006cc <__aeabi_cdcmpeq>:
 80006cc:	b501      	push	{r0, lr}
 80006ce:	f7ff ffb7 	bl	8000640 <__cmpdf2>
 80006d2:	2800      	cmp	r0, #0
 80006d4:	bf48      	it	mi
 80006d6:	f110 0f00 	cmnmi.w	r0, #0
 80006da:	bd01      	pop	{r0, pc}

080006dc <__aeabi_dcmpeq>:
 80006dc:	f84d ed08 	str.w	lr, [sp, #-8]!
 80006e0:	f7ff fff4 	bl	80006cc <__aeabi_cdcmpeq>
 80006e4:	bf0c      	ite	eq
 80006e6:	2001      	moveq	r0, #1
 80006e8:	2000      	movne	r0, #0
 80006ea:	f85d fb08 	ldr.w	pc, [sp], #8
 80006ee:	bf00      	nop

080006f0 <__aeabi_dcmplt>:
 80006f0:	f84d ed08 	str.w	lr, [sp, #-8]!
 80006f4:	f7ff ffea 	bl	80006cc <__aeabi_cdcmpeq>
 80006f8:	bf34      	ite	cc
 80006fa:	2001      	movcc	r0, #1
 80006fc:	2000      	movcs	r0, #0
 80006fe:	f85d fb08 	ldr.w	pc, [sp], #8
 8000702:	bf00      	nop

08000704 <__aeabi_dcmple>:
 8000704:	f84d ed08 	str.w	lr, [sp, #-8]!
 8000708:	f7ff ffe0 	bl	80006cc <__aeabi_cdcmpeq>
 800070c:	bf94      	ite	ls
 800070e:	2001      	movls	r0, #1
 8000710:	2000      	movhi	r0, #0
 8000712:	f85d fb08 	ldr.w	pc, [sp], #8
 8000716:	bf00      	nop

08000718 <__aeabi_dcmpge>:
 8000718:	f84d ed08 	str.w	lr, [sp, #-8]!
 800071c:	f7ff ffce 	bl	80006bc <__aeabi_cdrcmple>
 8000720:	bf94      	ite	ls
 8000722:	2001      	movls	r0, #1
 8000724:	2000      	movhi	r0, #0
 8000726:	f85d fb08 	ldr.w	pc, [sp], #8
 800072a:	bf00      	nop

0800072c <__aeabi_dcmpgt>:
 800072c:	f84d ed08 	str.w	lr, [sp, #-8]!
 8000730:	f7ff ffc4 	bl	80006bc <__aeabi_cdrcmple>
 8000734:	bf34      	ite	cc
 8000736:	2001      	movcc	r0, #1
 8000738:	2000      	movcs	r0, #0
 800073a:	f85d fb08 	ldr.w	pc, [sp], #8
 800073e:	bf00      	nop

08000740 <__gesf2>:
 8000740:	f04f 3cff 	mov.w	ip, #4294967295
 8000744:	e006      	b.n	8000754 <__cmpsf2+0x4>
 8000746:	bf00      	nop

08000748 <__lesf2>:
 8000748:	f04f 0c01 	mov.w	ip, #1
 800074c:	e002      	b.n	8000754 <__cmpsf2+0x4>
 800074e:	bf00      	nop

08000750 <__cmpsf2>:
 8000750:	f04f 0c01 	mov.w	ip, #1
 8000754:	f84d cd04 	str.w	ip, [sp, #-4]!
 8000758:	ea4f 0240 	mov.w	r2, r0, lsl #1
 800075c:	ea4f 0341 	mov.w	r3, r1, lsl #1
 8000760:	ea7f 6c22 	mvns.w	ip, r2, asr #24
 8000764:	bf18      	it	ne
 8000766:	ea7f 6c23 	mvnsne.w	ip, r3, asr #24
 800076a:	d011      	beq.n	8000790 <__cmpsf2+0x40>
 800076c:	b001      	add	sp, #4
 800076e:	ea52 0c53 	orrs.w	ip, r2, r3, lsr #1
 8000772:	bf18      	it	ne
 8000774:	ea90 0f01 	teqne	r0, r1
 8000778:	bf58      	it	pl
 800077a:	ebb2 0003 	subspl.w	r0, r2, r3
 800077e:	bf88      	it	hi
 8000780:	17c8      	asrhi	r0, r1, #31
 8000782:	bf38      	it	cc
 8000784:	ea6f 70e1 	mvncc.w	r0, r1, asr #31
 8000788:	bf18      	it	ne
 800078a:	f040 0001 	orrne.w	r0, r0, #1
 800078e:	4770      	bx	lr
 8000790:	ea7f 6c22 	mvns.w	ip, r2, asr #24
 8000794:	d102      	bne.n	800079c <__cmpsf2+0x4c>
 8000796:	ea5f 2c40 	movs.w	ip, r0, lsl #9
 800079a:	d105      	bne.n	80007a8 <__cmpsf2+0x58>
 800079c:	ea7f 6c23 	mvns.w	ip, r3, asr #24
 80007a0:	d1e4      	bne.n	800076c <__cmpsf2+0x1c>
 80007a2:	ea5f 2c41 	movs.w	ip, r1, lsl #9
 80007a6:	d0e1      	beq.n	800076c <__cmpsf2+0x1c>
 80007a8:	f85d 0b04 	ldr.w	r0, [sp], #4
 80007ac:	4770      	bx	lr
 80007ae:	bf00      	nop

080007b0 <__aeabi_cfrcmple>:
 80007b0:	4684      	mov	ip, r0
 80007b2:	4608      	mov	r0, r1
 80007b4:	4661      	mov	r1, ip
 80007b6:	e7ff      	b.n	80007b8 <__aeabi_cfcmpeq>

080007b8 <__aeabi_cfcmpeq>:
 80007b8:	b50f      	push	{r0, r1, r2, r3, lr}
 80007ba:	f7ff ffc9 	bl	8000750 <__cmpsf2>
 80007be:	2800      	cmp	r0, #0
 80007c0:	bf48      	it	mi
 80007c2:	f110 0f00 	cmnmi.w	r0, #0
 80007c6:	bd0f      	pop	{r0, r1, r2, r3, pc}

080007c8 <__aeabi_fcmpeq>:
 80007c8:	f84d ed08 	str.w	lr, [sp, #-8]!
 80007cc:	f7ff fff4 	bl	80007b8 <__aeabi_cfcmpeq>
 80007d0:	bf0c      	ite	eq
 80007d2:	2001      	moveq	r0, #1
 80007d4:	2000      	movne	r0, #0
 80007d6:	f85d fb08 	ldr.w	pc, [sp], #8
 80007da:	bf00      	nop

080007dc <__aeabi_fcmplt>:
 80007dc:	f84d ed08 	str.w	lr, [sp, #-8]!
 80007e0:	f7ff ffea 	bl	80007b8 <__aeabi_cfcmpeq>
 80007e4:	bf34      	ite	cc
 80007e6:	2001      	movcc	r0, #1
 80007e8:	2000      	movcs	r0, #0
 80007ea:	f85d fb08 	ldr.w	pc, [sp], #8
 80007ee:	bf00      	nop

080007f0 <__aeabi_fcmple>:
 80007f0:	f84d ed08 	str.w	lr, [sp, #-8]!
 80007f4:	f7ff ffe0 	bl	80007b8 <__aeabi_cfcmpeq>
 80007f8:	bf94      	ite	ls
 80007fa:	2001      	movls	r0, #1
 80007fc:	2000      	movhi	r0, #0
 80007fe:	f85d fb08 	ldr.w	pc, [sp], #8
 8000802:	bf00      	nop

08000804 <__aeabi_fcmpge>:
 8000804:	f84d ed08 	str.w	lr, [sp, #-8]!
 8000808:	f7ff ffd2 	bl	80007b0 <__aeabi_cfrcmple>
 800080c:	bf94      	ite	ls
 800080e:	2001      	movls	r0, #1
 8000810:	2000      	movhi	r0, #0
 8000812:	f85d fb08 	ldr.w	pc, [sp], #8
 8000816:	bf00      	nop

08000818 <__aeabi_fcmpgt>:
 8000818:	f84d ed08 	str.w	lr, [sp, #-8]!
 800081c:	f7ff ffc8 	bl	80007b0 <__aeabi_cfrcmple>
 8000820:	bf34      	ite	cc
 8000822:	2001      	movcc	r0, #1
 8000824:	2000      	movcs	r0, #0
 8000826:	f85d fb08 	ldr.w	pc, [sp], #8
 800082a:	bf00      	nop

0800082c <__aeabi_f2uiz>:
 800082c:	0042      	lsls	r2, r0, #1
 800082e:	d20e      	bcs.n	800084e <__aeabi_f2uiz+0x22>
 8000830:	f1b2 4ffe 	cmp.w	r2, #2130706432	; 0x7f000000
 8000834:	d30b      	bcc.n	800084e <__aeabi_f2uiz+0x22>
 8000836:	f04f 039e 	mov.w	r3, #158	; 0x9e
 800083a:	ebb3 6212 	subs.w	r2, r3, r2, lsr #24
 800083e:	d409      	bmi.n	8000854 <__aeabi_f2uiz+0x28>
 8000840:	ea4f 2300 	mov.w	r3, r0, lsl #8
 8000844:	f043 4300 	orr.w	r3, r3, #2147483648	; 0x80000000
 8000848:	fa23 f002 	lsr.w	r0, r3, r2
 800084c:	4770      	bx	lr
 800084e:	f04f 0000 	mov.w	r0, #0
 8000852:	4770      	bx	lr
 8000854:	f112 0f61 	cmn.w	r2, #97	; 0x61
 8000858:	d101      	bne.n	800085e <__aeabi_f2uiz+0x32>
 800085a:	0242      	lsls	r2, r0, #9
 800085c:	d102      	bne.n	8000864 <__aeabi_f2uiz+0x38>
 800085e:	f04f 30ff 	mov.w	r0, #4294967295
 8000862:	4770      	bx	lr
 8000864:	f04f 0000 	mov.w	r0, #0
 8000868:	4770      	bx	lr
 800086a:	bf00      	nop

0800086c <timeoutMicrosecondsToMclks>:
 800086c:	4b08      	ldr	r3, [pc, #32]	; (8000890 <timeoutMicrosecondsToMclks+0x24>)
 800086e:	f44f 727a 	mov.w	r2, #1000	; 0x3e8
 8000872:	4359      	muls	r1, r3
 8000874:	f44f 63fa 	mov.w	r3, #2000	; 0x7d0
 8000878:	f501 71fa 	add.w	r1, r1, #500	; 0x1f4
 800087c:	fbb1 f3f3 	udiv	r3, r1, r3
 8000880:	fbb1 f1f2 	udiv	r1, r1, r2
 8000884:	fb02 3000 	mla	r0, r2, r0, r3
 8000888:	fbb0 f0f1 	udiv	r0, r0, r1
 800088c:	4770      	bx	lr
 800088e:	bf00      	nop
 8000890:	003a2f00 	.word	0x003a2f00

08000894 <encodeTimeout>:
 8000894:	b150      	cbz	r0, 80008ac <encodeTimeout+0x18>
 8000896:	2300      	movs	r3, #0
 8000898:	3801      	subs	r0, #1
 800089a:	f030 01ff 	bics.w	r1, r0, #255	; 0xff
 800089e:	b29a      	uxth	r2, r3
 80008a0:	f103 0301 	add.w	r3, r3, #1
 80008a4:	d103      	bne.n	80008ae <encodeTimeout+0x1a>
 80008a6:	ea40 2002 	orr.w	r0, r0, r2, lsl #8
 80008aa:	b280      	uxth	r0, r0
 80008ac:	4770      	bx	lr
 80008ae:	0840      	lsrs	r0, r0, #1
 80008b0:	e7f3      	b.n	800089a <encodeTimeout+0x6>
	...

080008b4 <writeReg>:
 80008b4:	b51f      	push	{r0, r1, r2, r3, r4, lr}
 80008b6:	4c08      	ldr	r4, [pc, #32]	; (80008d8 <writeReg+0x24>)
 80008b8:	2301      	movs	r3, #1
 80008ba:	7021      	strb	r1, [r4, #0]
 80008bc:	2164      	movs	r1, #100	; 0x64
 80008be:	e9cd 3101 	strd	r3, r1, [sp, #4]
 80008c2:	4906      	ldr	r1, [pc, #24]	; (80008dc <writeReg+0x28>)
 80008c4:	9400      	str	r4, [sp, #0]
 80008c6:	4602      	mov	r2, r0
 80008c8:	7809      	ldrb	r1, [r1, #0]
 80008ca:	4805      	ldr	r0, [pc, #20]	; (80008e0 <writeReg+0x2c>)
 80008cc:	f002 f95c 	bl	8002b88 <HAL_I2C_Mem_Write>
 80008d0:	4b04      	ldr	r3, [pc, #16]	; (80008e4 <writeReg+0x30>)
 80008d2:	7018      	strb	r0, [r3, #0]
 80008d4:	b004      	add	sp, #16
 80008d6:	bd10      	pop	{r4, pc}
 80008d8:	200000e9 	.word	0x200000e9
 80008dc:	20000000 	.word	0x20000000
 80008e0:	20000088 	.word	0x20000088
 80008e4:	200000e8 	.word	0x200000e8

080008e8 <writeReg16Bit>:
 80008e8:	b51f      	push	{r0, r1, r2, r3, r4, lr}
 80008ea:	4b09      	ldr	r3, [pc, #36]	; (8000910 <writeReg16Bit+0x28>)
 80008ec:	4602      	mov	r2, r0
 80008ee:	8019      	strh	r1, [r3, #0]
 80008f0:	2064      	movs	r0, #100	; 0x64
 80008f2:	2102      	movs	r1, #2
 80008f4:	e9cd 1001 	strd	r1, r0, [sp, #4]
 80008f8:	4906      	ldr	r1, [pc, #24]	; (8000914 <writeReg16Bit+0x2c>)
 80008fa:	9300      	str	r3, [sp, #0]
 80008fc:	7809      	ldrb	r1, [r1, #0]
 80008fe:	2301      	movs	r3, #1
 8000900:	4805      	ldr	r0, [pc, #20]	; (8000918 <writeReg16Bit+0x30>)
 8000902:	f002 f941 	bl	8002b88 <HAL_I2C_Mem_Write>
 8000906:	4b05      	ldr	r3, [pc, #20]	; (800091c <writeReg16Bit+0x34>)
 8000908:	7018      	strb	r0, [r3, #0]
 800090a:	b005      	add	sp, #20
 800090c:	f85d fb04 	ldr.w	pc, [sp], #4
 8000910:	200000e9 	.word	0x200000e9
 8000914:	20000000 	.word	0x20000000
 8000918:	20000088 	.word	0x20000088
 800091c:	200000e8 	.word	0x200000e8

08000920 <readReg>:
 8000920:	b51f      	push	{r0, r1, r2, r3, r4, lr}
 8000922:	4b09      	ldr	r3, [pc, #36]	; (8000948 <readReg+0x28>)
 8000924:	4602      	mov	r2, r0
 8000926:	7819      	ldrb	r1, [r3, #0]
 8000928:	2064      	movs	r0, #100	; 0x64
 800092a:	2301      	movs	r3, #1
 800092c:	4c07      	ldr	r4, [pc, #28]	; (800094c <readReg+0x2c>)
 800092e:	e9cd 3001 	strd	r3, r0, [sp, #4]
 8000932:	4319      	orrs	r1, r3
 8000934:	9400      	str	r4, [sp, #0]
 8000936:	4806      	ldr	r0, [pc, #24]	; (8000950 <readReg+0x30>)
 8000938:	f002 f9b6 	bl	8002ca8 <HAL_I2C_Mem_Read>
 800093c:	4b05      	ldr	r3, [pc, #20]	; (8000954 <readReg+0x34>)
 800093e:	7018      	strb	r0, [r3, #0]
 8000940:	7820      	ldrb	r0, [r4, #0]
 8000942:	b004      	add	sp, #16
 8000944:	bd10      	pop	{r4, pc}
 8000946:	bf00      	nop
 8000948:	20000000 	.word	0x20000000
 800094c:	200000e9 	.word	0x200000e9
 8000950:	20000088 	.word	0x20000088
 8000954:	200000e8 	.word	0x200000e8

08000958 <readReg16Bit>:
 8000958:	b51f      	push	{r0, r1, r2, r3, r4, lr}
 800095a:	4b09      	ldr	r3, [pc, #36]	; (8000980 <readReg16Bit+0x28>)
 800095c:	4602      	mov	r2, r0
 800095e:	7819      	ldrb	r1, [r3, #0]
 8000960:	2064      	movs	r0, #100	; 0x64
 8000962:	2302      	movs	r3, #2
 8000964:	e9cd 3001 	strd	r3, r0, [sp, #4]
 8000968:	2301      	movs	r3, #1
 800096a:	4c06      	ldr	r4, [pc, #24]	; (8000984 <readReg16Bit+0x2c>)
 800096c:	4319      	orrs	r1, r3
 800096e:	9400      	str	r4, [sp, #0]
 8000970:	4805      	ldr	r0, [pc, #20]	; (8000988 <readReg16Bit+0x30>)
 8000972:	f002 f999 	bl	8002ca8 <HAL_I2C_Mem_Read>
 8000976:	4b05      	ldr	r3, [pc, #20]	; (800098c <readReg16Bit+0x34>)
 8000978:	7018      	strb	r0, [r3, #0]
 800097a:	8820      	ldrh	r0, [r4, #0]
 800097c:	b004      	add	sp, #16
 800097e:	bd10      	pop	{r4, pc}
 8000980:	20000000 	.word	0x20000000
 8000984:	200000e9 	.word	0x200000e9
 8000988:	20000088 	.word	0x20000088
 800098c:	200000e8 	.word	0x200000e8

08000990 <writeMulti>:
 8000990:	b51f      	push	{r0, r1, r2, r3, r4, lr}
 8000992:	4b09      	ldr	r3, [pc, #36]	; (80009b8 <writeMulti+0x28>)
 8000994:	6809      	ldr	r1, [r1, #0]
 8000996:	6019      	str	r1, [r3, #0]
 8000998:	2164      	movs	r1, #100	; 0x64
 800099a:	e9cd 2101 	strd	r2, r1, [sp, #4]
 800099e:	4907      	ldr	r1, [pc, #28]	; (80009bc <writeMulti+0x2c>)
 80009a0:	9300      	str	r3, [sp, #0]
 80009a2:	4602      	mov	r2, r0
 80009a4:	2301      	movs	r3, #1
 80009a6:	7809      	ldrb	r1, [r1, #0]
 80009a8:	4805      	ldr	r0, [pc, #20]	; (80009c0 <writeMulti+0x30>)
 80009aa:	f002 f8ed 	bl	8002b88 <HAL_I2C_Mem_Write>
 80009ae:	4b05      	ldr	r3, [pc, #20]	; (80009c4 <writeMulti+0x34>)
 80009b0:	7018      	strb	r0, [r3, #0]
 80009b2:	b005      	add	sp, #20
 80009b4:	f85d fb04 	ldr.w	pc, [sp], #4
 80009b8:	200000e9 	.word	0x200000e9
 80009bc:	20000000 	.word	0x20000000
 80009c0:	20000088 	.word	0x20000088
 80009c4:	200000e8 	.word	0x200000e8

080009c8 <readMulti>:
 80009c8:	b51f      	push	{r0, r1, r2, r3, r4, lr}
 80009ca:	4b08      	ldr	r3, [pc, #32]	; (80009ec <readMulti+0x24>)
 80009cc:	781c      	ldrb	r4, [r3, #0]
 80009ce:	2364      	movs	r3, #100	; 0x64
 80009d0:	e9cd 2301 	strd	r2, r3, [sp, #4]
 80009d4:	2301      	movs	r3, #1
 80009d6:	4602      	mov	r2, r0
 80009d8:	9100      	str	r1, [sp, #0]
 80009da:	4805      	ldr	r0, [pc, #20]	; (80009f0 <readMulti+0x28>)
 80009dc:	ea44 0103 	orr.w	r1, r4, r3
 80009e0:	f002 f962 	bl	8002ca8 <HAL_I2C_Mem_Read>
 80009e4:	4b03      	ldr	r3, [pc, #12]	; (80009f4 <readMulti+0x2c>)
 80009e6:	7018      	strb	r0, [r3, #0]
 80009e8:	b004      	add	sp, #16
 80009ea:	bd10      	pop	{r4, pc}
 80009ec:	20000000 	.word	0x20000000
 80009f0:	20000088 	.word	0x20000088
 80009f4:	200000e8 	.word	0x200000e8

080009f8 <setSignalRateLimit>:
 80009f8:	b538      	push	{r3, r4, r5, lr}
 80009fa:	2100      	movs	r1, #0
 80009fc:	4605      	mov	r5, r0
 80009fe:	f7ff feed 	bl	80007dc <__aeabi_fcmplt>
 8000a02:	4604      	mov	r4, r0
 8000a04:	b9a8      	cbnz	r0, 8000a32 <setSignalRateLimit+0x3a>
 8000a06:	4628      	mov	r0, r5
 8000a08:	f7ff fdba 	bl	8000580 <__aeabi_f2d>
 8000a0c:	a30c      	add	r3, pc, #48	; (adr r3, 8000a40 <setSignalRateLimit+0x48>)
 8000a0e:	e9d3 2300 	ldrd	r2, r3, [r3]
 8000a12:	f7ff fe8b 	bl	800072c <__aeabi_dcmpgt>
 8000a16:	b970      	cbnz	r0, 8000a36 <setSignalRateLimit+0x3e>
 8000a18:	f04f 4186 	mov.w	r1, #1124073472	; 0x43000000
 8000a1c:	4628      	mov	r0, r5
 8000a1e:	f7ff fb97 	bl	8000150 <__aeabi_fmul>
 8000a22:	f7ff ff03 	bl	800082c <__aeabi_f2uiz>
 8000a26:	b281      	uxth	r1, r0
 8000a28:	2044      	movs	r0, #68	; 0x44
 8000a2a:	f7ff ff5d 	bl	80008e8 <writeReg16Bit>
 8000a2e:	2001      	movs	r0, #1
 8000a30:	bd38      	pop	{r3, r4, r5, pc}
 8000a32:	2000      	movs	r0, #0
 8000a34:	e7fc      	b.n	8000a30 <setSignalRateLimit+0x38>
 8000a36:	4620      	mov	r0, r4
 8000a38:	e7fa      	b.n	8000a30 <setSignalRateLimit+0x38>
 8000a3a:	bf00      	nop
 8000a3c:	f3af 8000 	nop.w
 8000a40:	0a3d70a4 	.word	0x0a3d70a4
 8000a44:	407fffd7 	.word	0x407fffd7

08000a48 <getVcselPulsePeriod>:
 8000a48:	b508      	push	{r3, lr}
 8000a4a:	b930      	cbnz	r0, 8000a5a <getVcselPulsePeriod+0x12>
 8000a4c:	2050      	movs	r0, #80	; 0x50
 8000a4e:	f7ff ff67 	bl	8000920 <readReg>
 8000a52:	3001      	adds	r0, #1
 8000a54:	0040      	lsls	r0, r0, #1
 8000a56:	b2c0      	uxtb	r0, r0
 8000a58:	bd08      	pop	{r3, pc}
 8000a5a:	2801      	cmp	r0, #1
 8000a5c:	d101      	bne.n	8000a62 <getVcselPulsePeriod+0x1a>
 8000a5e:	2070      	movs	r0, #112	; 0x70
 8000a60:	e7f5      	b.n	8000a4e <getVcselPulsePeriod+0x6>
 8000a62:	20ff      	movs	r0, #255	; 0xff
 8000a64:	e7f8      	b.n	8000a58 <getVcselPulsePeriod+0x10>
	...

08000a68 <readRangeContinuousMillimeters>:
 8000a68:	b57f      	push	{r0, r1, r2, r3, r4, r5, r6, lr}
 8000a6a:	4604      	mov	r4, r0
 8000a6c:	f001 f8ec 	bl	8001c48 <HAL_GetTick>
 8000a70:	4d1f      	ldr	r5, [pc, #124]	; (8000af0 <readRangeContinuousMillimeters+0x88>)
 8000a72:	4e20      	ldr	r6, [pc, #128]	; (8000af4 <readRangeContinuousMillimeters+0x8c>)
 8000a74:	8028      	strh	r0, [r5, #0]
 8000a76:	2013      	movs	r0, #19
 8000a78:	f7ff ff52 	bl	8000920 <readReg>
 8000a7c:	0743      	lsls	r3, r0, #29
 8000a7e:	d009      	beq.n	8000a94 <readRangeContinuousMillimeters+0x2c>
 8000a80:	b9dc      	cbnz	r4, 8000aba <readRangeContinuousMillimeters+0x52>
 8000a82:	201e      	movs	r0, #30
 8000a84:	f7ff ff68 	bl	8000958 <readReg16Bit>
 8000a88:	4605      	mov	r5, r0
 8000a8a:	2101      	movs	r1, #1
 8000a8c:	200b      	movs	r0, #11
 8000a8e:	f7ff ff11 	bl	80008b4 <writeReg>
 8000a92:	e00f      	b.n	8000ab4 <readRangeContinuousMillimeters+0x4c>
 8000a94:	8833      	ldrh	r3, [r6, #0]
 8000a96:	2b00      	cmp	r3, #0
 8000a98:	d0ed      	beq.n	8000a76 <readRangeContinuousMillimeters+0xe>
 8000a9a:	f001 f8d5 	bl	8001c48 <HAL_GetTick>
 8000a9e:	882b      	ldrh	r3, [r5, #0]
 8000aa0:	b280      	uxth	r0, r0
 8000aa2:	1ac0      	subs	r0, r0, r3
 8000aa4:	8833      	ldrh	r3, [r6, #0]
 8000aa6:	4298      	cmp	r0, r3
 8000aa8:	dde5      	ble.n	8000a76 <readRangeContinuousMillimeters+0xe>
 8000aaa:	2201      	movs	r2, #1
 8000aac:	f64f 75ff 	movw	r5, #65535	; 0xffff
 8000ab0:	4b11      	ldr	r3, [pc, #68]	; (8000af8 <readRangeContinuousMillimeters+0x90>)
 8000ab2:	701a      	strb	r2, [r3, #0]
 8000ab4:	4628      	mov	r0, r5
 8000ab6:	b004      	add	sp, #16
 8000ab8:	bd70      	pop	{r4, r5, r6, pc}
 8000aba:	220c      	movs	r2, #12
 8000abc:	2014      	movs	r0, #20
 8000abe:	a901      	add	r1, sp, #4
 8000ac0:	f7ff ff82 	bl	80009c8 <readMulti>
 8000ac4:	f89d 3004 	ldrb.w	r3, [sp, #4]
 8000ac8:	08db      	lsrs	r3, r3, #3
 8000aca:	7223      	strb	r3, [r4, #8]
 8000acc:	f8bd 3006 	ldrh.w	r3, [sp, #6]
 8000ad0:	ba5b      	rev16	r3, r3
 8000ad2:	80e3      	strh	r3, [r4, #6]
 8000ad4:	f8bd 300a 	ldrh.w	r3, [sp, #10]
 8000ad8:	ba5b      	rev16	r3, r3
 8000ada:	8063      	strh	r3, [r4, #2]
 8000adc:	f8bd 300c 	ldrh.w	r3, [sp, #12]
 8000ae0:	ba5b      	rev16	r3, r3
 8000ae2:	80a3      	strh	r3, [r4, #4]
 8000ae4:	f8bd 300e 	ldrh.w	r3, [sp, #14]
 8000ae8:	ba5b      	rev16	r3, r3
 8000aea:	b29d      	uxth	r5, r3
 8000aec:	8023      	strh	r3, [r4, #0]
 8000aee:	e7cc      	b.n	8000a8a <readRangeContinuousMillimeters+0x22>
 8000af0:	200000e6 	.word	0x200000e6
 8000af4:	200000dc 	.word	0x200000dc
 8000af8:	200000de 	.word	0x200000de

08000afc <readRangeSingleMillimeters>:
 8000afc:	b570      	push	{r4, r5, r6, lr}
 8000afe:	2101      	movs	r1, #1
 8000b00:	4604      	mov	r4, r0
 8000b02:	2080      	movs	r0, #128	; 0x80
 8000b04:	f7ff fed6 	bl	80008b4 <writeReg>
 8000b08:	2101      	movs	r1, #1
 8000b0a:	20ff      	movs	r0, #255	; 0xff
 8000b0c:	f7ff fed2 	bl	80008b4 <writeReg>
 8000b10:	2100      	movs	r1, #0
 8000b12:	4608      	mov	r0, r1
 8000b14:	f7ff fece 	bl	80008b4 <writeReg>
 8000b18:	4b1a      	ldr	r3, [pc, #104]	; (8000b84 <readRangeSingleMillimeters+0x88>)
 8000b1a:	2091      	movs	r0, #145	; 0x91
 8000b1c:	7819      	ldrb	r1, [r3, #0]
 8000b1e:	f7ff fec9 	bl	80008b4 <writeReg>
 8000b22:	2101      	movs	r1, #1
 8000b24:	2000      	movs	r0, #0
 8000b26:	f7ff fec5 	bl	80008b4 <writeReg>
 8000b2a:	2100      	movs	r1, #0
 8000b2c:	20ff      	movs	r0, #255	; 0xff
 8000b2e:	f7ff fec1 	bl	80008b4 <writeReg>
 8000b32:	2100      	movs	r1, #0
 8000b34:	2080      	movs	r0, #128	; 0x80
 8000b36:	f7ff febd 	bl	80008b4 <writeReg>
 8000b3a:	2101      	movs	r1, #1
 8000b3c:	2000      	movs	r0, #0
 8000b3e:	f7ff feb9 	bl	80008b4 <writeReg>
 8000b42:	f001 f881 	bl	8001c48 <HAL_GetTick>
 8000b46:	4d10      	ldr	r5, [pc, #64]	; (8000b88 <readRangeSingleMillimeters+0x8c>)
 8000b48:	4e10      	ldr	r6, [pc, #64]	; (8000b8c <readRangeSingleMillimeters+0x90>)
 8000b4a:	8028      	strh	r0, [r5, #0]
 8000b4c:	2000      	movs	r0, #0
 8000b4e:	f7ff fee7 	bl	8000920 <readReg>
 8000b52:	07c3      	lsls	r3, r0, #31
 8000b54:	d404      	bmi.n	8000b60 <readRangeSingleMillimeters+0x64>
 8000b56:	4620      	mov	r0, r4
 8000b58:	e8bd 4070 	ldmia.w	sp!, {r4, r5, r6, lr}
 8000b5c:	f7ff bf84 	b.w	8000a68 <readRangeContinuousMillimeters>
 8000b60:	8833      	ldrh	r3, [r6, #0]
 8000b62:	2b00      	cmp	r3, #0
 8000b64:	d0f2      	beq.n	8000b4c <readRangeSingleMillimeters+0x50>
 8000b66:	f001 f86f 	bl	8001c48 <HAL_GetTick>
 8000b6a:	882a      	ldrh	r2, [r5, #0]
 8000b6c:	b283      	uxth	r3, r0
 8000b6e:	1a9b      	subs	r3, r3, r2
 8000b70:	8832      	ldrh	r2, [r6, #0]
 8000b72:	4293      	cmp	r3, r2
 8000b74:	ddea      	ble.n	8000b4c <readRangeSingleMillimeters+0x50>
 8000b76:	2201      	movs	r2, #1
 8000b78:	4b05      	ldr	r3, [pc, #20]	; (8000b90 <readRangeSingleMillimeters+0x94>)
 8000b7a:	f64f 70ff 	movw	r0, #65535	; 0xffff
 8000b7e:	701a      	strb	r2, [r3, #0]
 8000b80:	bd70      	pop	{r4, r5, r6, pc}
 8000b82:	bf00      	nop
 8000b84:	200000e4 	.word	0x200000e4
 8000b88:	200000e6 	.word	0x200000e6
 8000b8c:	200000dc 	.word	0x200000dc
 8000b90:	200000de 	.word	0x200000de

08000b94 <getSpadInfo>:
 8000b94:	e92d 41f0 	stmdb	sp!, {r4, r5, r6, r7, r8, lr}
 8000b98:	4606      	mov	r6, r0
 8000b9a:	460d      	mov	r5, r1
 8000b9c:	2080      	movs	r0, #128	; 0x80
 8000b9e:	2101      	movs	r1, #1
 8000ba0:	f7ff fe88 	bl	80008b4 <writeReg>
 8000ba4:	2101      	movs	r1, #1
 8000ba6:	20ff      	movs	r0, #255	; 0xff
 8000ba8:	f7ff fe84 	bl	80008b4 <writeReg>
 8000bac:	2100      	movs	r1, #0
 8000bae:	4608      	mov	r0, r1
 8000bb0:	f7ff fe80 	bl	80008b4 <writeReg>
 8000bb4:	2106      	movs	r1, #6
 8000bb6:	20ff      	movs	r0, #255	; 0xff
 8000bb8:	f7ff fe7c 	bl	80008b4 <writeReg>
 8000bbc:	2083      	movs	r0, #131	; 0x83
 8000bbe:	f7ff feaf 	bl	8000920 <readReg>
 8000bc2:	f040 0104 	orr.w	r1, r0, #4
 8000bc6:	b2c9      	uxtb	r1, r1
 8000bc8:	2083      	movs	r0, #131	; 0x83
 8000bca:	f7ff fe73 	bl	80008b4 <writeReg>
 8000bce:	2107      	movs	r1, #7
 8000bd0:	20ff      	movs	r0, #255	; 0xff
 8000bd2:	f7ff fe6f 	bl	80008b4 <writeReg>
 8000bd6:	2101      	movs	r1, #1
 8000bd8:	2081      	movs	r0, #129	; 0x81
 8000bda:	f7ff fe6b 	bl	80008b4 <writeReg>
 8000bde:	2101      	movs	r1, #1
 8000be0:	2080      	movs	r0, #128	; 0x80
 8000be2:	f7ff fe67 	bl	80008b4 <writeReg>
 8000be6:	216b      	movs	r1, #107	; 0x6b
 8000be8:	2094      	movs	r0, #148	; 0x94
 8000bea:	f7ff fe63 	bl	80008b4 <writeReg>
 8000bee:	2100      	movs	r1, #0
 8000bf0:	2083      	movs	r0, #131	; 0x83
 8000bf2:	f7ff fe5f 	bl	80008b4 <writeReg>
 8000bf6:	f001 f827 	bl	8001c48 <HAL_GetTick>
 8000bfa:	4f23      	ldr	r7, [pc, #140]	; (8000c88 <getSpadInfo+0xf4>)
 8000bfc:	f8df 808c 	ldr.w	r8, [pc, #140]	; 8000c8c <getSpadInfo+0xf8>
 8000c00:	8038      	strh	r0, [r7, #0]
 8000c02:	2083      	movs	r0, #131	; 0x83
 8000c04:	f7ff fe8c 	bl	8000920 <readReg>
 8000c08:	4604      	mov	r4, r0
 8000c0a:	b368      	cbz	r0, 8000c68 <getSpadInfo+0xd4>
 8000c0c:	2101      	movs	r1, #1
 8000c0e:	2083      	movs	r0, #131	; 0x83
 8000c10:	f7ff fe50 	bl	80008b4 <writeReg>
 8000c14:	2092      	movs	r0, #146	; 0x92
 8000c16:	f7ff fe83 	bl	8000920 <readReg>
 8000c1a:	f000 037f 	and.w	r3, r0, #127	; 0x7f
 8000c1e:	09c0      	lsrs	r0, r0, #7
 8000c20:	7033      	strb	r3, [r6, #0]
 8000c22:	2100      	movs	r1, #0
 8000c24:	7028      	strb	r0, [r5, #0]
 8000c26:	2081      	movs	r0, #129	; 0x81
 8000c28:	f7ff fe44 	bl	80008b4 <writeReg>
 8000c2c:	2106      	movs	r1, #6
 8000c2e:	20ff      	movs	r0, #255	; 0xff
 8000c30:	f7ff fe40 	bl	80008b4 <writeReg>
 8000c34:	2083      	movs	r0, #131	; 0x83
 8000c36:	f7ff fe73 	bl	8000920 <readReg>
 8000c3a:	f000 01fb 	and.w	r1, r0, #251	; 0xfb
 8000c3e:	2083      	movs	r0, #131	; 0x83
 8000c40:	f7ff fe38 	bl	80008b4 <writeReg>
 8000c44:	2101      	movs	r1, #1
 8000c46:	20ff      	movs	r0, #255	; 0xff
 8000c48:	f7ff fe34 	bl	80008b4 <writeReg>
 8000c4c:	2101      	movs	r1, #1
 8000c4e:	2000      	movs	r0, #0
 8000c50:	f7ff fe30 	bl	80008b4 <writeReg>
 8000c54:	2100      	movs	r1, #0
 8000c56:	20ff      	movs	r0, #255	; 0xff
 8000c58:	f7ff fe2c 	bl	80008b4 <writeReg>
 8000c5c:	2100      	movs	r1, #0
 8000c5e:	2080      	movs	r0, #128	; 0x80
 8000c60:	f7ff fe28 	bl	80008b4 <writeReg>
 8000c64:	2401      	movs	r4, #1
 8000c66:	e00c      	b.n	8000c82 <getSpadInfo+0xee>
 8000c68:	f8b8 3000 	ldrh.w	r3, [r8]
 8000c6c:	2b00      	cmp	r3, #0
 8000c6e:	d0c8      	beq.n	8000c02 <getSpadInfo+0x6e>
 8000c70:	f000 ffea 	bl	8001c48 <HAL_GetTick>
 8000c74:	883a      	ldrh	r2, [r7, #0]
 8000c76:	b283      	uxth	r3, r0
 8000c78:	1a9b      	subs	r3, r3, r2
 8000c7a:	f8b8 2000 	ldrh.w	r2, [r8]
 8000c7e:	4293      	cmp	r3, r2
 8000c80:	ddbf      	ble.n	8000c02 <getSpadInfo+0x6e>
 8000c82:	4620      	mov	r0, r4
 8000c84:	e8bd 81f0 	ldmia.w	sp!, {r4, r5, r6, r7, r8, pc}
 8000c88:	200000e6 	.word	0x200000e6
 8000c8c:	200000dc 	.word	0x200000dc

08000c90 <getSequenceStepEnables>:
 8000c90:	b510      	push	{r4, lr}
 8000c92:	4604      	mov	r4, r0
 8000c94:	2001      	movs	r0, #1
 8000c96:	f7ff fe43 	bl	8000920 <readReg>
 8000c9a:	f3c0 1300 	ubfx	r3, r0, #4, #1
 8000c9e:	7023      	strb	r3, [r4, #0]
 8000ca0:	f3c0 03c0 	ubfx	r3, r0, #3, #1
 8000ca4:	70a3      	strb	r3, [r4, #2]
 8000ca6:	f3c0 0380 	ubfx	r3, r0, #2, #1
 8000caa:	7063      	strb	r3, [r4, #1]
 8000cac:	f3c0 1380 	ubfx	r3, r0, #6, #1
 8000cb0:	70e3      	strb	r3, [r4, #3]
 8000cb2:	09c3      	lsrs	r3, r0, #7
 8000cb4:	7123      	strb	r3, [r4, #4]
 8000cb6:	bd10      	pop	{r4, pc}

08000cb8 <getSequenceStepTimeouts>:
 8000cb8:	e92d 41f0 	stmdb	sp!, {r4, r5, r6, r7, r8, lr}
 8000cbc:	4606      	mov	r6, r0
 8000cbe:	2050      	movs	r0, #80	; 0x50
 8000cc0:	460c      	mov	r4, r1
 8000cc2:	f7ff fe2d 	bl	8000920 <readReg>
 8000cc6:	f44f 777a 	mov.w	r7, #1000	; 0x3e8
 8000cca:	f44f 68fa 	mov.w	r8, #2000	; 0x7d0
 8000cce:	3001      	adds	r0, #1
 8000cd0:	0040      	lsls	r0, r0, #1
 8000cd2:	b2c0      	uxtb	r0, r0
 8000cd4:	8020      	strh	r0, [r4, #0]
 8000cd6:	2046      	movs	r0, #70	; 0x46
 8000cd8:	f7ff fe22 	bl	8000920 <readReg>
 8000cdc:	4d27      	ldr	r5, [pc, #156]	; (8000d7c <getSequenceStepTimeouts+0xc4>)
 8000cde:	7823      	ldrb	r3, [r4, #0]
 8000ce0:	3001      	adds	r0, #1
 8000ce2:	436b      	muls	r3, r5
 8000ce4:	f503 73fa 	add.w	r3, r3, #500	; 0x1f4
 8000ce8:	fbb3 f2f7 	udiv	r2, r3, r7
 8000cec:	fbb3 f3f8 	udiv	r3, r3, r8
 8000cf0:	b280      	uxth	r0, r0
 8000cf2:	fb00 3302 	mla	r3, r0, r2, r3
 8000cf6:	fbb3 f3f7 	udiv	r3, r3, r7
 8000cfa:	80a0      	strh	r0, [r4, #4]
 8000cfc:	60e3      	str	r3, [r4, #12]
 8000cfe:	2051      	movs	r0, #81	; 0x51
 8000d00:	f7ff fe2a 	bl	8000958 <readReg16Bit>
 8000d04:	7823      	ldrb	r3, [r4, #0]
 8000d06:	b2c2      	uxtb	r2, r0
 8000d08:	436b      	muls	r3, r5
 8000d0a:	f503 73fa 	add.w	r3, r3, #500	; 0x1f4
 8000d0e:	fbb3 f1f7 	udiv	r1, r3, r7
 8000d12:	fbb3 f3f8 	udiv	r3, r3, r8
 8000d16:	f3c0 200f 	ubfx	r0, r0, #8, #16
 8000d1a:	4082      	lsls	r2, r0
 8000d1c:	3201      	adds	r2, #1
 8000d1e:	b292      	uxth	r2, r2
 8000d20:	fb02 3301 	mla	r3, r2, r1, r3
 8000d24:	fbb3 f3f7 	udiv	r3, r3, r7
 8000d28:	80e2      	strh	r2, [r4, #6]
 8000d2a:	6123      	str	r3, [r4, #16]
 8000d2c:	2001      	movs	r0, #1
 8000d2e:	f7ff fe8b 	bl	8000a48 <getVcselPulsePeriod>
 8000d32:	8060      	strh	r0, [r4, #2]
 8000d34:	2071      	movs	r0, #113	; 0x71
 8000d36:	f7ff fe0f 	bl	8000958 <readReg16Bit>
 8000d3a:	b2c3      	uxtb	r3, r0
 8000d3c:	f3c0 200f 	ubfx	r0, r0, #8, #16
 8000d40:	4083      	lsls	r3, r0
 8000d42:	3301      	adds	r3, #1
 8000d44:	b29b      	uxth	r3, r3
 8000d46:	8123      	strh	r3, [r4, #8]
 8000d48:	78f2      	ldrb	r2, [r6, #3]
 8000d4a:	b112      	cbz	r2, 8000d52 <getSequenceStepTimeouts+0x9a>
 8000d4c:	88e2      	ldrh	r2, [r4, #6]
 8000d4e:	1a9b      	subs	r3, r3, r2
 8000d50:	8123      	strh	r3, [r4, #8]
 8000d52:	78a3      	ldrb	r3, [r4, #2]
 8000d54:	f44f 727a 	mov.w	r2, #1000	; 0x3e8
 8000d58:	436b      	muls	r3, r5
 8000d5a:	f44f 65fa 	mov.w	r5, #2000	; 0x7d0
 8000d5e:	f503 73fa 	add.w	r3, r3, #500	; 0x1f4
 8000d62:	fbb3 f1f2 	udiv	r1, r3, r2
 8000d66:	fbb3 f3f5 	udiv	r3, r3, r5
 8000d6a:	8920      	ldrh	r0, [r4, #8]
 8000d6c:	fb00 3301 	mla	r3, r0, r1, r3
 8000d70:	fbb3 f3f2 	udiv	r3, r3, r2
 8000d74:	6163      	str	r3, [r4, #20]
 8000d76:	e8bd 81f0 	ldmia.w	sp!, {r4, r5, r6, r7, r8, pc}
 8000d7a:	bf00      	nop
 8000d7c:	003a2f00 	.word	0x003a2f00

08000d80 <setMeasurementTimingBudget>:
 8000d80:	f644 631f 	movw	r3, #19999	; 0x4e1f
 8000d84:	b530      	push	{r4, r5, lr}
 8000d86:	4298      	cmp	r0, r3
 8000d88:	4604      	mov	r4, r0
 8000d8a:	b089      	sub	sp, #36	; 0x24
 8000d8c:	d944      	bls.n	8000e18 <setMeasurementTimingBudget+0x98>
 8000d8e:	4668      	mov	r0, sp
 8000d90:	f7ff ff7e 	bl	8000c90 <getSequenceStepEnables>
 8000d94:	4668      	mov	r0, sp
 8000d96:	a902      	add	r1, sp, #8
 8000d98:	f7ff ff8e 	bl	8000cb8 <getSequenceStepTimeouts>
 8000d9c:	f89d 3000 	ldrb.w	r3, [sp]
 8000da0:	b373      	cbz	r3, 8000e00 <setMeasurementTimingBudget+0x80>
 8000da2:	9b05      	ldr	r3, [sp, #20]
 8000da4:	f603 3336 	addw	r3, r3, #2870	; 0xb36
 8000da8:	f89d 2002 	ldrb.w	r2, [sp, #2]
 8000dac:	b35a      	cbz	r2, 8000e06 <setMeasurementTimingBudget+0x86>
 8000dae:	9a05      	ldr	r2, [sp, #20]
 8000db0:	f202 22b2 	addw	r2, r2, #690	; 0x2b2
 8000db4:	eb03 0342 	add.w	r3, r3, r2, lsl #1
 8000db8:	f89d 5003 	ldrb.w	r5, [sp, #3]
 8000dbc:	b11d      	cbz	r5, 8000dc6 <setMeasurementTimingBudget+0x46>
 8000dbe:	9a06      	ldr	r2, [sp, #24]
 8000dc0:	f502 7225 	add.w	r2, r2, #660	; 0x294
 8000dc4:	4413      	add	r3, r2
 8000dc6:	f89d 2004 	ldrb.w	r2, [sp, #4]
 8000dca:	b1b2      	cbz	r2, 8000dfa <setMeasurementTimingBudget+0x7a>
 8000dcc:	f203 2326 	addw	r3, r3, #550	; 0x226
 8000dd0:	429c      	cmp	r4, r3
 8000dd2:	d321      	bcc.n	8000e18 <setMeasurementTimingBudget+0x98>
 8000dd4:	f89d 100a 	ldrb.w	r1, [sp, #10]
 8000dd8:	1ae0      	subs	r0, r4, r3
 8000dda:	f7ff fd47 	bl	800086c <timeoutMicrosecondsToMclks>
 8000dde:	b280      	uxth	r0, r0
 8000de0:	b11d      	cbz	r5, 8000dea <setMeasurementTimingBudget+0x6a>
 8000de2:	f8bd 300e 	ldrh.w	r3, [sp, #14]
 8000de6:	4418      	add	r0, r3
 8000de8:	b280      	uxth	r0, r0
 8000dea:	f7ff fd53 	bl	8000894 <encodeTimeout>
 8000dee:	4601      	mov	r1, r0
 8000df0:	2071      	movs	r0, #113	; 0x71
 8000df2:	f7ff fd79 	bl	80008e8 <writeReg16Bit>
 8000df6:	4b09      	ldr	r3, [pc, #36]	; (8000e1c <setMeasurementTimingBudget+0x9c>)
 8000df8:	601c      	str	r4, [r3, #0]
 8000dfa:	2001      	movs	r0, #1
 8000dfc:	b009      	add	sp, #36	; 0x24
 8000dfe:	bd30      	pop	{r4, r5, pc}
 8000e00:	f640 03e8 	movw	r3, #2280	; 0x8e8
 8000e04:	e7d0      	b.n	8000da8 <setMeasurementTimingBudget+0x28>
 8000e06:	f89d 2001 	ldrb.w	r2, [sp, #1]
 8000e0a:	2a00      	cmp	r2, #0
 8000e0c:	d0d4      	beq.n	8000db8 <setMeasurementTimingBudget+0x38>
 8000e0e:	9a05      	ldr	r2, [sp, #20]
 8000e10:	f502 7225 	add.w	r2, r2, #660	; 0x294
 8000e14:	4413      	add	r3, r2
 8000e16:	e7cf      	b.n	8000db8 <setMeasurementTimingBudget+0x38>
 8000e18:	2000      	movs	r0, #0
 8000e1a:	e7ef      	b.n	8000dfc <setMeasurementTimingBudget+0x7c>
 8000e1c:	200000e0 	.word	0x200000e0

08000e20 <getMeasurementTimingBudget>:
 8000e20:	b500      	push	{lr}
 8000e22:	b089      	sub	sp, #36	; 0x24
 8000e24:	4668      	mov	r0, sp
 8000e26:	f7ff ff33 	bl	8000c90 <getSequenceStepEnables>
 8000e2a:	4668      	mov	r0, sp
 8000e2c:	a902      	add	r1, sp, #8
 8000e2e:	f7ff ff43 	bl	8000cb8 <getSequenceStepTimeouts>
 8000e32:	f89d 3000 	ldrb.w	r3, [sp]
 8000e36:	b1eb      	cbz	r3, 8000e74 <getMeasurementTimingBudget+0x54>
 8000e38:	9805      	ldr	r0, [sp, #20]
 8000e3a:	f600 5084 	addw	r0, r0, #3460	; 0xd84
 8000e3e:	f89d 3002 	ldrb.w	r3, [sp, #2]
 8000e42:	b1d3      	cbz	r3, 8000e7a <getMeasurementTimingBudget+0x5a>
 8000e44:	9b05      	ldr	r3, [sp, #20]
 8000e46:	f203 23b2 	addw	r3, r3, #690	; 0x2b2
 8000e4a:	eb00 0043 	add.w	r0, r0, r3, lsl #1
 8000e4e:	f89d 3003 	ldrb.w	r3, [sp, #3]
 8000e52:	b11b      	cbz	r3, 8000e5c <getMeasurementTimingBudget+0x3c>
 8000e54:	9b06      	ldr	r3, [sp, #24]
 8000e56:	f503 7325 	add.w	r3, r3, #660	; 0x294
 8000e5a:	4418      	add	r0, r3
 8000e5c:	f89d 3004 	ldrb.w	r3, [sp, #4]
 8000e60:	b11b      	cbz	r3, 8000e6a <getMeasurementTimingBudget+0x4a>
 8000e62:	9b07      	ldr	r3, [sp, #28]
 8000e64:	f203 2326 	addw	r3, r3, #550	; 0x226
 8000e68:	4418      	add	r0, r3
 8000e6a:	4b08      	ldr	r3, [pc, #32]	; (8000e8c <getMeasurementTimingBudget+0x6c>)
 8000e6c:	6018      	str	r0, [r3, #0]
 8000e6e:	b009      	add	sp, #36	; 0x24
 8000e70:	f85d fb04 	ldr.w	pc, [sp], #4
 8000e74:	f640 3036 	movw	r0, #2870	; 0xb36
 8000e78:	e7e1      	b.n	8000e3e <getMeasurementTimingBudget+0x1e>
 8000e7a:	f89d 3001 	ldrb.w	r3, [sp, #1]
 8000e7e:	2b00      	cmp	r3, #0
 8000e80:	d0e5      	beq.n	8000e4e <getMeasurementTimingBudget+0x2e>
 8000e82:	9b05      	ldr	r3, [sp, #20]
 8000e84:	f503 7325 	add.w	r3, r3, #660	; 0x294
 8000e88:	4418      	add	r0, r3
 8000e8a:	e7e0      	b.n	8000e4e <getMeasurementTimingBudget+0x2e>
 8000e8c:	200000e0 	.word	0x200000e0

08000e90 <performSingleRefCalibration>:
 8000e90:	b570      	push	{r4, r5, r6, lr}
 8000e92:	f040 0101 	orr.w	r1, r0, #1
 8000e96:	2000      	movs	r0, #0
 8000e98:	f7ff fd0c 	bl	80008b4 <writeReg>
 8000e9c:	f000 fed4 	bl	8001c48 <HAL_GetTick>
 8000ea0:	4d0f      	ldr	r5, [pc, #60]	; (8000ee0 <performSingleRefCalibration+0x50>)
 8000ea2:	4e10      	ldr	r6, [pc, #64]	; (8000ee4 <performSingleRefCalibration+0x54>)
 8000ea4:	8028      	strh	r0, [r5, #0]
 8000ea6:	2013      	movs	r0, #19
 8000ea8:	f7ff fd3a 	bl	8000920 <readReg>
 8000eac:	f010 0407 	ands.w	r4, r0, #7
 8000eb0:	d009      	beq.n	8000ec6 <performSingleRefCalibration+0x36>
 8000eb2:	2101      	movs	r1, #1
 8000eb4:	200b      	movs	r0, #11
 8000eb6:	f7ff fcfd 	bl	80008b4 <writeReg>
 8000eba:	2100      	movs	r1, #0
 8000ebc:	4608      	mov	r0, r1
 8000ebe:	f7ff fcf9 	bl	80008b4 <writeReg>
 8000ec2:	2401      	movs	r4, #1
 8000ec4:	e00a      	b.n	8000edc <performSingleRefCalibration+0x4c>
 8000ec6:	8833      	ldrh	r3, [r6, #0]
 8000ec8:	2b00      	cmp	r3, #0
 8000eca:	d0ec      	beq.n	8000ea6 <performSingleRefCalibration+0x16>
 8000ecc:	f000 febc 	bl	8001c48 <HAL_GetTick>
 8000ed0:	882b      	ldrh	r3, [r5, #0]
 8000ed2:	b280      	uxth	r0, r0
 8000ed4:	1ac0      	subs	r0, r0, r3
 8000ed6:	8833      	ldrh	r3, [r6, #0]
 8000ed8:	4298      	cmp	r0, r3
 8000eda:	dde4      	ble.n	8000ea6 <performSingleRefCalibration+0x16>
 8000edc:	4620      	mov	r0, r4
 8000ede:	bd70      	pop	{r4, r5, r6, pc}
 8000ee0:	200000e6 	.word	0x200000e6
 8000ee4:	200000dc 	.word	0x200000dc

08000ee8 <initVL53L0X>:
 8000ee8:	b5f0      	push	{r4, r5, r6, r7, lr}
 8000eea:	2254      	movs	r2, #84	; 0x54
 8000eec:	4604      	mov	r4, r0
 8000eee:	b085      	sub	sp, #20
 8000ef0:	4827      	ldr	r0, [pc, #156]	; (8000f90 <initVL53L0X+0xa8>)
 8000ef2:	f002 fe7c 	bl	8003bee <memcpy>
 8000ef6:	2200      	movs	r2, #0
 8000ef8:	4b26      	ldr	r3, [pc, #152]	; (8000f94 <initVL53L0X+0xac>)
 8000efa:	701a      	strb	r2, [r3, #0]
 8000efc:	705a      	strb	r2, [r3, #1]
 8000efe:	709a      	strb	r2, [r3, #2]
 8000f00:	70da      	strb	r2, [r3, #3]
 8000f02:	b144      	cbz	r4, 8000f16 <initVL53L0X+0x2e>
 8000f04:	2089      	movs	r0, #137	; 0x89
 8000f06:	f7ff fd0b 	bl	8000920 <readReg>
 8000f0a:	f040 0101 	orr.w	r1, r0, #1
 8000f0e:	b2c9      	uxtb	r1, r1
 8000f10:	2089      	movs	r0, #137	; 0x89
 8000f12:	f7ff fccf 	bl	80008b4 <writeReg>
 8000f16:	2100      	movs	r1, #0
 8000f18:	2088      	movs	r0, #136	; 0x88
 8000f1a:	f7ff fccb 	bl	80008b4 <writeReg>
 8000f1e:	2101      	movs	r1, #1
 8000f20:	2080      	movs	r0, #128	; 0x80
 8000f22:	f7ff fcc7 	bl	80008b4 <writeReg>
 8000f26:	2101      	movs	r1, #1
 8000f28:	20ff      	movs	r0, #255	; 0xff
 8000f2a:	f7ff fcc3 	bl	80008b4 <writeReg>
 8000f2e:	2100      	movs	r1, #0
 8000f30:	4608      	mov	r0, r1
 8000f32:	f7ff fcbf 	bl	80008b4 <writeReg>
 8000f36:	2091      	movs	r0, #145	; 0x91
 8000f38:	f7ff fcf2 	bl	8000920 <readReg>
 8000f3c:	4b16      	ldr	r3, [pc, #88]	; (8000f98 <initVL53L0X+0xb0>)
 8000f3e:	2101      	movs	r1, #1
 8000f40:	7018      	strb	r0, [r3, #0]
 8000f42:	2000      	movs	r0, #0
 8000f44:	f7ff fcb6 	bl	80008b4 <writeReg>
 8000f48:	2100      	movs	r1, #0
 8000f4a:	20ff      	movs	r0, #255	; 0xff
 8000f4c:	f7ff fcb2 	bl	80008b4 <writeReg>
 8000f50:	2100      	movs	r1, #0
 8000f52:	2080      	movs	r0, #128	; 0x80
 8000f54:	f7ff fcae 	bl	80008b4 <writeReg>
 8000f58:	2060      	movs	r0, #96	; 0x60
 8000f5a:	f7ff fce1 	bl	8000920 <readReg>
 8000f5e:	f040 0112 	orr.w	r1, r0, #18
 8000f62:	b2c9      	uxtb	r1, r1
 8000f64:	2060      	movs	r0, #96	; 0x60
 8000f66:	f7ff fca5 	bl	80008b4 <writeReg>
 8000f6a:	f04f 507a 	mov.w	r0, #1048576000	; 0x3e800000
 8000f6e:	f7ff fd43 	bl	80009f8 <setSignalRateLimit>
 8000f72:	21ff      	movs	r1, #255	; 0xff
 8000f74:	2001      	movs	r0, #1
 8000f76:	f7ff fc9d 	bl	80008b4 <writeReg>
 8000f7a:	f10d 0107 	add.w	r1, sp, #7
 8000f7e:	f10d 0006 	add.w	r0, sp, #6
 8000f82:	f7ff fe07 	bl	8000b94 <getSpadInfo>
 8000f86:	b948      	cbnz	r0, 8000f9c <initVL53L0X+0xb4>
 8000f88:	2000      	movs	r0, #0
 8000f8a:	b005      	add	sp, #20
 8000f8c:	bdf0      	pop	{r4, r5, r6, r7, pc}
 8000f8e:	bf00      	nop
 8000f90:	20000088 	.word	0x20000088
 8000f94:	200000e9 	.word	0x200000e9
 8000f98:	200000e4 	.word	0x200000e4
 8000f9c:	2400      	movs	r4, #0
 8000f9e:	2206      	movs	r2, #6
 8000fa0:	20b0      	movs	r0, #176	; 0xb0
 8000fa2:	a902      	add	r1, sp, #8
 8000fa4:	f7ff fd10 	bl	80009c8 <readMulti>
 8000fa8:	2101      	movs	r1, #1
 8000faa:	20ff      	movs	r0, #255	; 0xff
 8000fac:	f7ff fc82 	bl	80008b4 <writeReg>
 8000fb0:	2100      	movs	r1, #0
 8000fb2:	204f      	movs	r0, #79	; 0x4f
 8000fb4:	f7ff fc7e 	bl	80008b4 <writeReg>
 8000fb8:	212c      	movs	r1, #44	; 0x2c
 8000fba:	204e      	movs	r0, #78	; 0x4e
 8000fbc:	f7ff fc7a 	bl	80008b4 <writeReg>
 8000fc0:	2100      	movs	r1, #0
 8000fc2:	20ff      	movs	r0, #255	; 0xff
 8000fc4:	f7ff fc76 	bl	80008b4 <writeReg>
 8000fc8:	21b4      	movs	r1, #180	; 0xb4
 8000fca:	20b6      	movs	r0, #182	; 0xb6
 8000fcc:	f7ff fc72 	bl	80008b4 <writeReg>
 8000fd0:	f89d 1007 	ldrb.w	r1, [sp, #7]
 8000fd4:	4622      	mov	r2, r4
 8000fd6:	2900      	cmp	r1, #0
 8000fd8:	bf18      	it	ne
 8000fda:	210c      	movne	r1, #12
 8000fdc:	f04f 0c01 	mov.w	ip, #1
 8000fe0:	f89d 7006 	ldrb.w	r7, [sp, #6]
 8000fe4:	f3c4 05c4 	ubfx	r5, r4, #3, #5
 8000fe8:	f105 0310 	add.w	r3, r5, #16
 8000fec:	b2e6      	uxtb	r6, r4
 8000fee:	eb0d 0503 	add.w	r5, sp, r3
 8000ff2:	42b1      	cmp	r1, r6
 8000ff4:	f815 3c08 	ldrb.w	r3, [r5, #-8]
 8000ff8:	f004 0007 	and.w	r0, r4, #7
 8000ffc:	d802      	bhi.n	8001004 <initVL53L0X+0x11c>
 8000ffe:	4297      	cmp	r7, r2
 8001000:	f040 8183 	bne.w	800130a <initVL53L0X+0x422>
 8001004:	fa0c f000 	lsl.w	r0, ip, r0
 8001008:	ea23 0300 	bic.w	r3, r3, r0
 800100c:	f805 3c08 	strb.w	r3, [r5, #-8]
 8001010:	3401      	adds	r4, #1
 8001012:	2c30      	cmp	r4, #48	; 0x30
 8001014:	d1e6      	bne.n	8000fe4 <initVL53L0X+0xfc>
 8001016:	2206      	movs	r2, #6
 8001018:	20b0      	movs	r0, #176	; 0xb0
 800101a:	a902      	add	r1, sp, #8
 800101c:	f7ff fcb8 	bl	8000990 <writeMulti>
 8001020:	2101      	movs	r1, #1
 8001022:	20ff      	movs	r0, #255	; 0xff
 8001024:	f7ff fc46 	bl	80008b4 <writeReg>
 8001028:	2100      	movs	r1, #0
 800102a:	4608      	mov	r0, r1
 800102c:	f7ff fc42 	bl	80008b4 <writeReg>
 8001030:	2100      	movs	r1, #0
 8001032:	20ff      	movs	r0, #255	; 0xff
 8001034:	f7ff fc3e 	bl	80008b4 <writeReg>
 8001038:	2100      	movs	r1, #0
 800103a:	2009      	movs	r0, #9
 800103c:	f7ff fc3a 	bl	80008b4 <writeReg>
 8001040:	2100      	movs	r1, #0
 8001042:	2010      	movs	r0, #16
 8001044:	f7ff fc36 	bl	80008b4 <writeReg>
 8001048:	2100      	movs	r1, #0
 800104a:	2011      	movs	r0, #17
 800104c:	f7ff fc32 	bl	80008b4 <writeReg>
 8001050:	2101      	movs	r1, #1
 8001052:	2024      	movs	r0, #36	; 0x24
 8001054:	f7ff fc2e 	bl	80008b4 <writeReg>
 8001058:	21ff      	movs	r1, #255	; 0xff
 800105a:	2025      	movs	r0, #37	; 0x25
 800105c:	f7ff fc2a 	bl	80008b4 <writeReg>
 8001060:	2100      	movs	r1, #0
 8001062:	2075      	movs	r0, #117	; 0x75
 8001064:	f7ff fc26 	bl	80008b4 <writeReg>
 8001068:	2101      	movs	r1, #1
 800106a:	20ff      	movs	r0, #255	; 0xff
 800106c:	f7ff fc22 	bl	80008b4 <writeReg>
 8001070:	212c      	movs	r1, #44	; 0x2c
 8001072:	204e      	movs	r0, #78	; 0x4e
 8001074:	f7ff fc1e 	bl	80008b4 <writeReg>
 8001078:	2100      	movs	r1, #0
 800107a:	2048      	movs	r0, #72	; 0x48
 800107c:	f7ff fc1a 	bl	80008b4 <writeReg>
 8001080:	4620      	mov	r0, r4
 8001082:	2120      	movs	r1, #32
 8001084:	f7ff fc16 	bl	80008b4 <writeReg>
 8001088:	2100      	movs	r1, #0
 800108a:	20ff      	movs	r0, #255	; 0xff
 800108c:	f7ff fc12 	bl	80008b4 <writeReg>
 8001090:	4620      	mov	r0, r4
 8001092:	2109      	movs	r1, #9
 8001094:	f7ff fc0e 	bl	80008b4 <writeReg>
 8001098:	2100      	movs	r1, #0
 800109a:	2054      	movs	r0, #84	; 0x54
 800109c:	f7ff fc0a 	bl	80008b4 <writeReg>
 80010a0:	2104      	movs	r1, #4
 80010a2:	2031      	movs	r0, #49	; 0x31
 80010a4:	f7ff fc06 	bl	80008b4 <writeReg>
 80010a8:	2103      	movs	r1, #3
 80010aa:	2032      	movs	r0, #50	; 0x32
 80010ac:	f7ff fc02 	bl	80008b4 <writeReg>
 80010b0:	2183      	movs	r1, #131	; 0x83
 80010b2:	2040      	movs	r0, #64	; 0x40
 80010b4:	f7ff fbfe 	bl	80008b4 <writeReg>
 80010b8:	2125      	movs	r1, #37	; 0x25
 80010ba:	2046      	movs	r0, #70	; 0x46
 80010bc:	f7ff fbfa 	bl	80008b4 <writeReg>
 80010c0:	2100      	movs	r1, #0
 80010c2:	2060      	movs	r0, #96	; 0x60
 80010c4:	f7ff fbf6 	bl	80008b4 <writeReg>
 80010c8:	2100      	movs	r1, #0
 80010ca:	2027      	movs	r0, #39	; 0x27
 80010cc:	f7ff fbf2 	bl	80008b4 <writeReg>
 80010d0:	2106      	movs	r1, #6
 80010d2:	2050      	movs	r0, #80	; 0x50
 80010d4:	f7ff fbee 	bl	80008b4 <writeReg>
 80010d8:	2100      	movs	r1, #0
 80010da:	2051      	movs	r0, #81	; 0x51
 80010dc:	f7ff fbea 	bl	80008b4 <writeReg>
 80010e0:	2196      	movs	r1, #150	; 0x96
 80010e2:	2052      	movs	r0, #82	; 0x52
 80010e4:	f7ff fbe6 	bl	80008b4 <writeReg>
 80010e8:	2108      	movs	r1, #8
 80010ea:	2056      	movs	r0, #86	; 0x56
 80010ec:	f7ff fbe2 	bl	80008b4 <writeReg>
 80010f0:	4621      	mov	r1, r4
 80010f2:	2057      	movs	r0, #87	; 0x57
 80010f4:	f7ff fbde 	bl	80008b4 <writeReg>
 80010f8:	2100      	movs	r1, #0
 80010fa:	2061      	movs	r0, #97	; 0x61
 80010fc:	f7ff fbda 	bl	80008b4 <writeReg>
 8001100:	2100      	movs	r1, #0
 8001102:	2062      	movs	r0, #98	; 0x62
 8001104:	f7ff fbd6 	bl	80008b4 <writeReg>
 8001108:	2100      	movs	r1, #0
 800110a:	2064      	movs	r0, #100	; 0x64
 800110c:	f7ff fbd2 	bl	80008b4 <writeReg>
 8001110:	2100      	movs	r1, #0
 8001112:	2065      	movs	r0, #101	; 0x65
 8001114:	f7ff fbce 	bl	80008b4 <writeReg>
 8001118:	21a0      	movs	r1, #160	; 0xa0
 800111a:	2066      	movs	r0, #102	; 0x66
 800111c:	f7ff fbca 	bl	80008b4 <writeReg>
 8001120:	2101      	movs	r1, #1
 8001122:	20ff      	movs	r0, #255	; 0xff
 8001124:	f7ff fbc6 	bl	80008b4 <writeReg>
 8001128:	2132      	movs	r1, #50	; 0x32
 800112a:	2022      	movs	r0, #34	; 0x22
 800112c:	f7ff fbc2 	bl	80008b4 <writeReg>
 8001130:	2114      	movs	r1, #20
 8001132:	2047      	movs	r0, #71	; 0x47
 8001134:	f7ff fbbe 	bl	80008b4 <writeReg>
 8001138:	21ff      	movs	r1, #255	; 0xff
 800113a:	2049      	movs	r0, #73	; 0x49
 800113c:	f7ff fbba 	bl	80008b4 <writeReg>
 8001140:	2100      	movs	r1, #0
 8001142:	204a      	movs	r0, #74	; 0x4a
 8001144:	f7ff fbb6 	bl	80008b4 <writeReg>
 8001148:	2100      	movs	r1, #0
 800114a:	20ff      	movs	r0, #255	; 0xff
 800114c:	f7ff fbb2 	bl	80008b4 <writeReg>
 8001150:	210a      	movs	r1, #10
 8001152:	207a      	movs	r0, #122	; 0x7a
 8001154:	f7ff fbae 	bl	80008b4 <writeReg>
 8001158:	2100      	movs	r1, #0
 800115a:	207b      	movs	r0, #123	; 0x7b
 800115c:	f7ff fbaa 	bl	80008b4 <writeReg>
 8001160:	2121      	movs	r1, #33	; 0x21
 8001162:	2078      	movs	r0, #120	; 0x78
 8001164:	f7ff fba6 	bl	80008b4 <writeReg>
 8001168:	2101      	movs	r1, #1
 800116a:	20ff      	movs	r0, #255	; 0xff
 800116c:	f7ff fba2 	bl	80008b4 <writeReg>
 8001170:	2134      	movs	r1, #52	; 0x34
 8001172:	2023      	movs	r0, #35	; 0x23
 8001174:	f7ff fb9e 	bl	80008b4 <writeReg>
 8001178:	2100      	movs	r1, #0
 800117a:	2042      	movs	r0, #66	; 0x42
 800117c:	f7ff fb9a 	bl	80008b4 <writeReg>
 8001180:	21ff      	movs	r1, #255	; 0xff
 8001182:	2044      	movs	r0, #68	; 0x44
 8001184:	f7ff fb96 	bl	80008b4 <writeReg>
 8001188:	2126      	movs	r1, #38	; 0x26
 800118a:	2045      	movs	r0, #69	; 0x45
 800118c:	f7ff fb92 	bl	80008b4 <writeReg>
 8001190:	2105      	movs	r1, #5
 8001192:	2046      	movs	r0, #70	; 0x46
 8001194:	f7ff fb8e 	bl	80008b4 <writeReg>
 8001198:	2140      	movs	r1, #64	; 0x40
 800119a:	4608      	mov	r0, r1
 800119c:	f7ff fb8a 	bl	80008b4 <writeReg>
 80011a0:	2106      	movs	r1, #6
 80011a2:	200e      	movs	r0, #14
 80011a4:	f7ff fb86 	bl	80008b4 <writeReg>
 80011a8:	211a      	movs	r1, #26
 80011aa:	2020      	movs	r0, #32
 80011ac:	f7ff fb82 	bl	80008b4 <writeReg>
 80011b0:	2140      	movs	r1, #64	; 0x40
 80011b2:	2043      	movs	r0, #67	; 0x43
 80011b4:	f7ff fb7e 	bl	80008b4 <writeReg>
 80011b8:	2100      	movs	r1, #0
 80011ba:	20ff      	movs	r0, #255	; 0xff
 80011bc:	f7ff fb7a 	bl	80008b4 <writeReg>
 80011c0:	2103      	movs	r1, #3
 80011c2:	2034      	movs	r0, #52	; 0x34
 80011c4:	f7ff fb76 	bl	80008b4 <writeReg>
 80011c8:	2144      	movs	r1, #68	; 0x44
 80011ca:	2035      	movs	r0, #53	; 0x35
 80011cc:	f7ff fb72 	bl	80008b4 <writeReg>
 80011d0:	2101      	movs	r1, #1
 80011d2:	20ff      	movs	r0, #255	; 0xff
 80011d4:	f7ff fb6e 	bl	80008b4 <writeReg>
 80011d8:	2104      	movs	r1, #4
 80011da:	2031      	movs	r0, #49	; 0x31
 80011dc:	f7ff fb6a 	bl	80008b4 <writeReg>
 80011e0:	2109      	movs	r1, #9
 80011e2:	204b      	movs	r0, #75	; 0x4b
 80011e4:	f7ff fb66 	bl	80008b4 <writeReg>
 80011e8:	2105      	movs	r1, #5
 80011ea:	204c      	movs	r0, #76	; 0x4c
 80011ec:	f7ff fb62 	bl	80008b4 <writeReg>
 80011f0:	2104      	movs	r1, #4
 80011f2:	204d      	movs	r0, #77	; 0x4d
 80011f4:	f7ff fb5e 	bl	80008b4 <writeReg>
 80011f8:	2100      	movs	r1, #0
 80011fa:	20ff      	movs	r0, #255	; 0xff
 80011fc:	f7ff fb5a 	bl	80008b4 <writeReg>
 8001200:	2100      	movs	r1, #0
 8001202:	2044      	movs	r0, #68	; 0x44
 8001204:	f7ff fb56 	bl	80008b4 <writeReg>
 8001208:	2120      	movs	r1, #32
 800120a:	2045      	movs	r0, #69	; 0x45
 800120c:	f7ff fb52 	bl	80008b4 <writeReg>
 8001210:	2108      	movs	r1, #8
 8001212:	2047      	movs	r0, #71	; 0x47
 8001214:	f7ff fb4e 	bl	80008b4 <writeReg>
 8001218:	2128      	movs	r1, #40	; 0x28
 800121a:	2048      	movs	r0, #72	; 0x48
 800121c:	f7ff fb4a 	bl	80008b4 <writeReg>
 8001220:	2100      	movs	r1, #0
 8001222:	2067      	movs	r0, #103	; 0x67
 8001224:	f7ff fb46 	bl	80008b4 <writeReg>
 8001228:	2104      	movs	r1, #4
 800122a:	2070      	movs	r0, #112	; 0x70
 800122c:	f7ff fb42 	bl	80008b4 <writeReg>
 8001230:	2101      	movs	r1, #1
 8001232:	2071      	movs	r0, #113	; 0x71
 8001234:	f7ff fb3e 	bl	80008b4 <writeReg>
 8001238:	21fe      	movs	r1, #254	; 0xfe
 800123a:	2072      	movs	r0, #114	; 0x72
 800123c:	f7ff fb3a 	bl	80008b4 <writeReg>
 8001240:	2100      	movs	r1, #0
 8001242:	2076      	movs	r0, #118	; 0x76
 8001244:	f7ff fb36 	bl	80008b4 <writeReg>
 8001248:	2100      	movs	r1, #0
 800124a:	2077      	movs	r0, #119	; 0x77
 800124c:	f7ff fb32 	bl	80008b4 <writeReg>
 8001250:	2101      	movs	r1, #1
 8001252:	20ff      	movs	r0, #255	; 0xff
 8001254:	f7ff fb2e 	bl	80008b4 <writeReg>
 8001258:	2101      	movs	r1, #1
 800125a:	200d      	movs	r0, #13
 800125c:	f7ff fb2a 	bl	80008b4 <writeReg>
 8001260:	2100      	movs	r1, #0
 8001262:	20ff      	movs	r0, #255	; 0xff
 8001264:	f7ff fb26 	bl	80008b4 <writeReg>
 8001268:	2101      	movs	r1, #1
 800126a:	2080      	movs	r0, #128	; 0x80
 800126c:	f7ff fb22 	bl	80008b4 <writeReg>
 8001270:	21f8      	movs	r1, #248	; 0xf8
 8001272:	2001      	movs	r0, #1
 8001274:	f7ff fb1e 	bl	80008b4 <writeReg>
 8001278:	2101      	movs	r1, #1
 800127a:	20ff      	movs	r0, #255	; 0xff
 800127c:	f7ff fb1a 	bl	80008b4 <writeReg>
 8001280:	2101      	movs	r1, #1
 8001282:	208e      	movs	r0, #142	; 0x8e
 8001284:	f7ff fb16 	bl	80008b4 <writeReg>
 8001288:	2101      	movs	r1, #1
 800128a:	2000      	movs	r0, #0
 800128c:	f7ff fb12 	bl	80008b4 <writeReg>
 8001290:	2100      	movs	r1, #0
 8001292:	20ff      	movs	r0, #255	; 0xff
 8001294:	f7ff fb0e 	bl	80008b4 <writeReg>
 8001298:	2100      	movs	r1, #0
 800129a:	2080      	movs	r0, #128	; 0x80
 800129c:	f7ff fb0a 	bl	80008b4 <writeReg>
 80012a0:	2104      	movs	r1, #4
 80012a2:	200a      	movs	r0, #10
 80012a4:	f7ff fb06 	bl	80008b4 <writeReg>
 80012a8:	2084      	movs	r0, #132	; 0x84
 80012aa:	f7ff fb39 	bl	8000920 <readReg>
 80012ae:	f000 01ef 	and.w	r1, r0, #239	; 0xef
 80012b2:	2084      	movs	r0, #132	; 0x84
 80012b4:	f7ff fafe 	bl	80008b4 <writeReg>
 80012b8:	2101      	movs	r1, #1
 80012ba:	200b      	movs	r0, #11
 80012bc:	f7ff fafa 	bl	80008b4 <writeReg>
 80012c0:	f7ff fdae 	bl	8000e20 <getMeasurementTimingBudget>
 80012c4:	4c14      	ldr	r4, [pc, #80]	; (8001318 <initVL53L0X+0x430>)
 80012c6:	21e8      	movs	r1, #232	; 0xe8
 80012c8:	6020      	str	r0, [r4, #0]
 80012ca:	2001      	movs	r0, #1
 80012cc:	f7ff faf2 	bl	80008b4 <writeReg>
 80012d0:	6820      	ldr	r0, [r4, #0]
 80012d2:	f7ff fd55 	bl	8000d80 <setMeasurementTimingBudget>
 80012d6:	2101      	movs	r1, #1
 80012d8:	4608      	mov	r0, r1
 80012da:	f7ff faeb 	bl	80008b4 <writeReg>
 80012de:	2040      	movs	r0, #64	; 0x40
 80012e0:	f7ff fdd6 	bl	8000e90 <performSingleRefCalibration>
 80012e4:	2800      	cmp	r0, #0
 80012e6:	f43f ae4f 	beq.w	8000f88 <initVL53L0X+0xa0>
 80012ea:	2001      	movs	r0, #1
 80012ec:	2102      	movs	r1, #2
 80012ee:	f7ff fae1 	bl	80008b4 <writeReg>
 80012f2:	2000      	movs	r0, #0
 80012f4:	f7ff fdcc 	bl	8000e90 <performSingleRefCalibration>
 80012f8:	2800      	cmp	r0, #0
 80012fa:	f43f ae45 	beq.w	8000f88 <initVL53L0X+0xa0>
 80012fe:	2001      	movs	r0, #1
 8001300:	21e8      	movs	r1, #232	; 0xe8
 8001302:	f7ff fad7 	bl	80008b4 <writeReg>
 8001306:	2001      	movs	r0, #1
 8001308:	e63f      	b.n	8000f8a <initVL53L0X+0xa2>
 800130a:	4103      	asrs	r3, r0
 800130c:	07db      	lsls	r3, r3, #31
 800130e:	bf44      	itt	mi
 8001310:	3201      	addmi	r2, #1
 8001312:	b2d2      	uxtbmi	r2, r2
 8001314:	e67c      	b.n	8001010 <initVL53L0X+0x128>
 8001316:	bf00      	nop
 8001318:	200000e0 	.word	0x200000e0

0800131c <setVcselPulsePeriod>:
 800131c:	b570      	push	{r4, r5, r6, lr}
 800131e:	4604      	mov	r4, r0
 8001320:	b088      	sub	sp, #32
 8001322:	084e      	lsrs	r6, r1, #1
 8001324:	4668      	mov	r0, sp
 8001326:	460d      	mov	r5, r1
 8001328:	3e01      	subs	r6, #1
 800132a:	f7ff fcb1 	bl	8000c90 <getSequenceStepEnables>
 800132e:	4668      	mov	r0, sp
 8001330:	a902      	add	r1, sp, #8
 8001332:	b2f6      	uxtb	r6, r6
 8001334:	f7ff fcc0 	bl	8000cb8 <getSequenceStepTimeouts>
 8001338:	2c00      	cmp	r4, #0
 800133a:	d14e      	bne.n	80013da <setVcselPulsePeriod+0xbe>
 800133c:	f1a5 030c 	sub.w	r3, r5, #12
 8001340:	2b06      	cmp	r3, #6
 8001342:	d841      	bhi.n	80013c8 <setVcselPulsePeriod+0xac>
 8001344:	e8df f003 	tbb	[pc, r3]
 8001348:	40434004 	.word	0x40434004
 800134c:	4045      	.short	0x4045
 800134e:	47          	.byte	0x47
 800134f:	00          	.byte	0x00
 8001350:	2118      	movs	r1, #24
 8001352:	2057      	movs	r0, #87	; 0x57
 8001354:	f7ff faae 	bl	80008b4 <writeReg>
 8001358:	2108      	movs	r1, #8
 800135a:	2056      	movs	r0, #86	; 0x56
 800135c:	f7ff faaa 	bl	80008b4 <writeReg>
 8001360:	4631      	mov	r1, r6
 8001362:	2050      	movs	r0, #80	; 0x50
 8001364:	f7ff faa6 	bl	80008b4 <writeReg>
 8001368:	4629      	mov	r1, r5
 800136a:	9806      	ldr	r0, [sp, #24]
 800136c:	f7ff fa7e 	bl	800086c <timeoutMicrosecondsToMclks>
 8001370:	b280      	uxth	r0, r0
 8001372:	f7ff fa8f 	bl	8000894 <encodeTimeout>
 8001376:	4601      	mov	r1, r0
 8001378:	2051      	movs	r0, #81	; 0x51
 800137a:	f7ff fab5 	bl	80008e8 <writeReg16Bit>
 800137e:	4629      	mov	r1, r5
 8001380:	9805      	ldr	r0, [sp, #20]
 8001382:	f7ff fa73 	bl	800086c <timeoutMicrosecondsToMclks>
 8001386:	b283      	uxth	r3, r0
 8001388:	f5b3 7f80 	cmp.w	r3, #256	; 0x100
 800138c:	bf94      	ite	ls
 800138e:	f100 31ff 	addls.w	r1, r0, #4294967295
 8001392:	21ff      	movhi	r1, #255	; 0xff
 8001394:	f04f 0046 	mov.w	r0, #70	; 0x46
 8001398:	bf98      	it	ls
 800139a:	b2c9      	uxtbls	r1, r1
 800139c:	f7ff fa8a 	bl	80008b4 <writeReg>
 80013a0:	4b47      	ldr	r3, [pc, #284]	; (80014c0 <setVcselPulsePeriod+0x1a4>)
 80013a2:	6818      	ldr	r0, [r3, #0]
 80013a4:	f7ff fcec 	bl	8000d80 <setMeasurementTimingBudget>
 80013a8:	2001      	movs	r0, #1
 80013aa:	f7ff fab9 	bl	8000920 <readReg>
 80013ae:	4604      	mov	r4, r0
 80013b0:	2102      	movs	r1, #2
 80013b2:	2001      	movs	r0, #1
 80013b4:	f7ff fa7e 	bl	80008b4 <writeReg>
 80013b8:	2000      	movs	r0, #0
 80013ba:	f7ff fd69 	bl	8000e90 <performSingleRefCalibration>
 80013be:	4621      	mov	r1, r4
 80013c0:	2001      	movs	r0, #1
 80013c2:	f7ff fa77 	bl	80008b4 <writeReg>
 80013c6:	2401      	movs	r4, #1
 80013c8:	4620      	mov	r0, r4
 80013ca:	b008      	add	sp, #32
 80013cc:	bd70      	pop	{r4, r5, r6, pc}
 80013ce:	2130      	movs	r1, #48	; 0x30
 80013d0:	e7bf      	b.n	8001352 <setVcselPulsePeriod+0x36>
 80013d2:	2140      	movs	r1, #64	; 0x40
 80013d4:	e7bd      	b.n	8001352 <setVcselPulsePeriod+0x36>
 80013d6:	2150      	movs	r1, #80	; 0x50
 80013d8:	e7bb      	b.n	8001352 <setVcselPulsePeriod+0x36>
 80013da:	2c01      	cmp	r4, #1
 80013dc:	d16e      	bne.n	80014bc <setVcselPulsePeriod+0x1a0>
 80013de:	f1a5 0308 	sub.w	r3, r5, #8
 80013e2:	2b06      	cmp	r3, #6
 80013e4:	d86a      	bhi.n	80014bc <setVcselPulsePeriod+0x1a0>
 80013e6:	e8df f003 	tbb	[pc, r3]
 80013ea:	6904      	.short	0x6904
 80013ec:	694d6937 	.word	0x694d6937
 80013f0:	5b          	.byte	0x5b
 80013f1:	00          	.byte	0x00
 80013f2:	2110      	movs	r1, #16
 80013f4:	2048      	movs	r0, #72	; 0x48
 80013f6:	f7ff fa5d 	bl	80008b4 <writeReg>
 80013fa:	2108      	movs	r1, #8
 80013fc:	2047      	movs	r0, #71	; 0x47
 80013fe:	f7ff fa59 	bl	80008b4 <writeReg>
 8001402:	2102      	movs	r1, #2
 8001404:	2032      	movs	r0, #50	; 0x32
 8001406:	f7ff fa55 	bl	80008b4 <writeReg>
 800140a:	210c      	movs	r1, #12
 800140c:	2030      	movs	r0, #48	; 0x30
 800140e:	f7ff fa51 	bl	80008b4 <writeReg>
 8001412:	2101      	movs	r1, #1
 8001414:	20ff      	movs	r0, #255	; 0xff
 8001416:	f7ff fa4d 	bl	80008b4 <writeReg>
 800141a:	2130      	movs	r1, #48	; 0x30
 800141c:	2030      	movs	r0, #48	; 0x30
 800141e:	f7ff fa49 	bl	80008b4 <writeReg>
 8001422:	2100      	movs	r1, #0
 8001424:	20ff      	movs	r0, #255	; 0xff
 8001426:	f7ff fa45 	bl	80008b4 <writeReg>
 800142a:	4631      	mov	r1, r6
 800142c:	2070      	movs	r0, #112	; 0x70
 800142e:	f7ff fa41 	bl	80008b4 <writeReg>
 8001432:	4629      	mov	r1, r5
 8001434:	9807      	ldr	r0, [sp, #28]
 8001436:	f7ff fa19 	bl	800086c <timeoutMicrosecondsToMclks>
 800143a:	f89d 3003 	ldrb.w	r3, [sp, #3]
 800143e:	b280      	uxth	r0, r0
 8001440:	b11b      	cbz	r3, 800144a <setVcselPulsePeriod+0x12e>
 8001442:	f8bd 300e 	ldrh.w	r3, [sp, #14]
 8001446:	4418      	add	r0, r3
 8001448:	b280      	uxth	r0, r0
 800144a:	f7ff fa23 	bl	8000894 <encodeTimeout>
 800144e:	4601      	mov	r1, r0
 8001450:	2071      	movs	r0, #113	; 0x71
 8001452:	f7ff fa49 	bl	80008e8 <writeReg16Bit>
 8001456:	e7a3      	b.n	80013a0 <setVcselPulsePeriod+0x84>
 8001458:	2128      	movs	r1, #40	; 0x28
 800145a:	2048      	movs	r0, #72	; 0x48
 800145c:	f7ff fa2a 	bl	80008b4 <writeReg>
 8001460:	2108      	movs	r1, #8
 8001462:	2047      	movs	r0, #71	; 0x47
 8001464:	f7ff fa26 	bl	80008b4 <writeReg>
 8001468:	2103      	movs	r1, #3
 800146a:	2032      	movs	r0, #50	; 0x32
 800146c:	f7ff fa22 	bl	80008b4 <writeReg>
 8001470:	2109      	movs	r1, #9
 8001472:	2030      	movs	r0, #48	; 0x30
 8001474:	f7ff fa1e 	bl	80008b4 <writeReg>
 8001478:	2101      	movs	r1, #1
 800147a:	20ff      	movs	r0, #255	; 0xff
 800147c:	f7ff fa1a 	bl	80008b4 <writeReg>
 8001480:	2120      	movs	r1, #32
 8001482:	e7cb      	b.n	800141c <setVcselPulsePeriod+0x100>
 8001484:	2138      	movs	r1, #56	; 0x38
 8001486:	2048      	movs	r0, #72	; 0x48
 8001488:	f7ff fa14 	bl	80008b4 <writeReg>
 800148c:	2108      	movs	r1, #8
 800148e:	2047      	movs	r0, #71	; 0x47
 8001490:	f7ff fa10 	bl	80008b4 <writeReg>
 8001494:	2103      	movs	r1, #3
 8001496:	2032      	movs	r0, #50	; 0x32
 8001498:	f7ff fa0c 	bl	80008b4 <writeReg>
 800149c:	2108      	movs	r1, #8
 800149e:	e7e8      	b.n	8001472 <setVcselPulsePeriod+0x156>
 80014a0:	2148      	movs	r1, #72	; 0x48
 80014a2:	4608      	mov	r0, r1
 80014a4:	f7ff fa06 	bl	80008b4 <writeReg>
 80014a8:	2108      	movs	r1, #8
 80014aa:	2047      	movs	r0, #71	; 0x47
 80014ac:	f7ff fa02 	bl	80008b4 <writeReg>
 80014b0:	2103      	movs	r1, #3
 80014b2:	2032      	movs	r0, #50	; 0x32
 80014b4:	f7ff f9fe 	bl	80008b4 <writeReg>
 80014b8:	2107      	movs	r1, #7
 80014ba:	e7da      	b.n	8001472 <setVcselPulsePeriod+0x156>
 80014bc:	2400      	movs	r4, #0
 80014be:	e783      	b.n	80013c8 <setVcselPulsePeriod+0xac>
 80014c0:	200000e0 	.word	0x200000e0

080014c4 <HAL_CAN_RxFifo1MsgPendingCallback>:
 80014c4:	b510      	push	{r4, lr}
 80014c6:	4604      	mov	r4, r0
 80014c8:	f44f 6100 	mov.w	r1, #2048	; 0x800
 80014cc:	4809      	ldr	r0, [pc, #36]	; (80014f4 <HAL_CAN_RxFifo1MsgPendingCallback+0x30>)
 80014ce:	f001 f8ac 	bl	800262a <HAL_GPIO_TogglePin>
 80014d2:	2101      	movs	r1, #1
 80014d4:	4620      	mov	r0, r4
 80014d6:	4b08      	ldr	r3, [pc, #32]	; (80014f8 <HAL_CAN_RxFifo1MsgPendingCallback+0x34>)
 80014d8:	4a08      	ldr	r2, [pc, #32]	; (80014fc <HAL_CAN_RxFifo1MsgPendingCallback+0x38>)
 80014da:	f000 fdda 	bl	8002092 <HAL_CAN_GetRxMessage>
 80014de:	b108      	cbz	r0, 80014e4 <HAL_CAN_RxFifo1MsgPendingCallback+0x20>
 80014e0:	f000 f810 	bl	8001504 <Error_Handler>
 80014e4:	4b05      	ldr	r3, [pc, #20]	; (80014fc <HAL_CAN_RxFifo1MsgPendingCallback+0x38>)
 80014e6:	681b      	ldr	r3, [r3, #0]
 80014e8:	2b12      	cmp	r3, #18
 80014ea:	bf02      	ittt	eq
 80014ec:	2201      	moveq	r2, #1
 80014ee:	4b04      	ldreq	r3, [pc, #16]	; (8001500 <HAL_CAN_RxFifo1MsgPendingCallback+0x3c>)
 80014f0:	701a      	strbeq	r2, [r3, #0]
 80014f2:	bd10      	pop	{r4, pc}
 80014f4:	40010c00 	.word	0x40010c00
 80014f8:	200000ee 	.word	0x200000ee
 80014fc:	200000f8 	.word	0x200000f8
 8001500:	200000ed 	.word	0x200000ed

08001504 <Error_Handler>:
 8001504:	b508      	push	{r3, lr}
 8001506:	b672      	cpsid	i
 8001508:	4c04      	ldr	r4, [pc, #16]	; (800151c <Error_Handler+0x18>)
 800150a:	4620      	mov	r0, r4
 800150c:	f44f 6100 	mov.w	r1, #2048	; 0x800
 8001510:	f001 f88b 	bl	800262a <HAL_GPIO_TogglePin>
 8001514:	20c8      	movs	r0, #200	; 0xc8
 8001516:	f000 fb9d 	bl	8001c54 <HAL_Delay>
 800151a:	e7f6      	b.n	800150a <Error_Handler+0x6>
 800151c:	40010c00 	.word	0x40010c00

08001520 <SystemClock_Config>:
 8001520:	b510      	push	{r4, lr}
 8001522:	b094      	sub	sp, #80	; 0x50
 8001524:	2214      	movs	r2, #20
 8001526:	2100      	movs	r1, #0
 8001528:	a80c      	add	r0, sp, #48	; 0x30
 800152a:	f002 fae5 	bl	8003af8 <memset>
 800152e:	2214      	movs	r2, #20
 8001530:	2100      	movs	r1, #0
 8001532:	eb0d 0002 	add.w	r0, sp, r2
 8001536:	f002 fadf 	bl	8003af8 <memset>
 800153a:	2210      	movs	r2, #16
 800153c:	2100      	movs	r1, #0
 800153e:	a801      	add	r0, sp, #4
 8001540:	f002 fada 	bl	8003af8 <memset>
 8001544:	2402      	movs	r4, #2
 8001546:	f44f 3380 	mov.w	r3, #65536	; 0x10000
 800154a:	2201      	movs	r2, #1
 800154c:	e9cd 4311 	strd	r4, r3, [sp, #68]	; 0x44
 8001550:	e9cd 230a 	strd	r2, r3, [sp, #40]	; 0x28
 8001554:	f44f 13e0 	mov.w	r3, #1835008	; 0x1c0000
 8001558:	a80a      	add	r0, sp, #40	; 0x28
 800155a:	920e      	str	r2, [sp, #56]	; 0x38
 800155c:	9313      	str	r3, [sp, #76]	; 0x4c
 800155e:	f001 fce1 	bl	8002f24 <HAL_RCC_OscConfig>
 8001562:	b108      	cbz	r0, 8001568 <SystemClock_Config+0x48>
 8001564:	f7ff ffce 	bl	8001504 <Error_Handler>
 8001568:	230f      	movs	r3, #15
 800156a:	e9cd 3405 	strd	r3, r4, [sp, #20]
 800156e:	f44f 6380 	mov.w	r3, #1024	; 0x400
 8001572:	9007      	str	r0, [sp, #28]
 8001574:	e9cd 3008 	strd	r3, r0, [sp, #32]
 8001578:	4621      	mov	r1, r4
 800157a:	a805      	add	r0, sp, #20
 800157c:	f001 fe94 	bl	80032a8 <HAL_RCC_ClockConfig>
 8001580:	2800      	cmp	r0, #0
 8001582:	d1ef      	bne.n	8001564 <SystemClock_Config+0x44>
 8001584:	f44f 4300 	mov.w	r3, #32768	; 0x8000
 8001588:	a801      	add	r0, sp, #4
 800158a:	9401      	str	r4, [sp, #4]
 800158c:	9303      	str	r3, [sp, #12]
 800158e:	f001 ff47 	bl	8003420 <HAL_RCCEx_PeriphCLKConfig>
 8001592:	2800      	cmp	r0, #0
 8001594:	d1e6      	bne.n	8001564 <SystemClock_Config+0x44>
 8001596:	b014      	add	sp, #80	; 0x50
 8001598:	bd10      	pop	{r4, pc}
	...

0800159c <main>:
 800159c:	e92d 41f0 	stmdb	sp!, {r4, r5, r6, r7, r8, lr}
 80015a0:	b08e      	sub	sp, #56	; 0x38
 80015a2:	f000 fb33 	bl	8001c0c <HAL_Init>
 80015a6:	f7ff ffbb 	bl	8001520 <SystemClock_Config>
 80015aa:	2210      	movs	r2, #16
 80015ac:	2100      	movs	r1, #0
 80015ae:	eb0d 0002 	add.w	r0, sp, r2
 80015b2:	f002 faa1 	bl	8003af8 <memset>
 80015b6:	4b95      	ldr	r3, [pc, #596]	; (800180c <main+0x270>)
 80015b8:	2400      	movs	r4, #0
 80015ba:	699a      	ldr	r2, [r3, #24]
 80015bc:	f44f 4780 	mov.w	r7, #16384	; 0x4000
 80015c0:	f042 0210 	orr.w	r2, r2, #16
 80015c4:	619a      	str	r2, [r3, #24]
 80015c6:	699a      	ldr	r2, [r3, #24]
 80015c8:	f44f 4100 	mov.w	r1, #32768	; 0x8000
 80015cc:	f002 0210 	and.w	r2, r2, #16
 80015d0:	9200      	str	r2, [sp, #0]
 80015d2:	9a00      	ldr	r2, [sp, #0]
 80015d4:	699a      	ldr	r2, [r3, #24]
 80015d6:	488e      	ldr	r0, [pc, #568]	; (8001810 <main+0x274>)
 80015d8:	f042 0220 	orr.w	r2, r2, #32
 80015dc:	619a      	str	r2, [r3, #24]
 80015de:	699a      	ldr	r2, [r3, #24]
 80015e0:	4d8c      	ldr	r5, [pc, #560]	; (8001814 <main+0x278>)
 80015e2:	f002 0220 	and.w	r2, r2, #32
 80015e6:	9201      	str	r2, [sp, #4]
 80015e8:	9a01      	ldr	r2, [sp, #4]
 80015ea:	699a      	ldr	r2, [r3, #24]
 80015ec:	2601      	movs	r6, #1
 80015ee:	f042 0204 	orr.w	r2, r2, #4
 80015f2:	619a      	str	r2, [r3, #24]
 80015f4:	699a      	ldr	r2, [r3, #24]
 80015f6:	f04f 0802 	mov.w	r8, #2
 80015fa:	f002 0204 	and.w	r2, r2, #4
 80015fe:	9202      	str	r2, [sp, #8]
 8001600:	9a02      	ldr	r2, [sp, #8]
 8001602:	699a      	ldr	r2, [r3, #24]
 8001604:	f042 0208 	orr.w	r2, r2, #8
 8001608:	619a      	str	r2, [r3, #24]
 800160a:	699b      	ldr	r3, [r3, #24]
 800160c:	2200      	movs	r2, #0
 800160e:	f003 0308 	and.w	r3, r3, #8
 8001612:	9303      	str	r3, [sp, #12]
 8001614:	9b03      	ldr	r3, [sp, #12]
 8001616:	f001 f803 	bl	8002620 <HAL_GPIO_WritePin>
 800161a:	2201      	movs	r2, #1
 800161c:	f44f 51e0 	mov.w	r1, #7168	; 0x1c00
 8001620:	487d      	ldr	r0, [pc, #500]	; (8001818 <main+0x27c>)
 8001622:	f000 fffd 	bl	8002620 <HAL_GPIO_WritePin>
 8001626:	2200      	movs	r2, #0
 8001628:	f44f 4141 	mov.w	r1, #49408	; 0xc100
 800162c:	487a      	ldr	r0, [pc, #488]	; (8001818 <main+0x27c>)
 800162e:	f000 fff7 	bl	8002620 <HAL_GPIO_WritePin>
 8001632:	4877      	ldr	r0, [pc, #476]	; (8001810 <main+0x274>)
 8001634:	a904      	add	r1, sp, #16
 8001636:	e9cd 7504 	strd	r7, r5, [sp, #16]
 800163a:	9406      	str	r4, [sp, #24]
 800163c:	f000 ff16 	bl	800246c <HAL_GPIO_Init>
 8001640:	f44f 4300 	mov.w	r3, #32768	; 0x8000
 8001644:	4872      	ldr	r0, [pc, #456]	; (8001810 <main+0x274>)
 8001646:	a904      	add	r1, sp, #16
 8001648:	e9cd 3604 	strd	r3, r6, [sp, #16]
 800164c:	9406      	str	r4, [sp, #24]
 800164e:	f8cd 801c 	str.w	r8, [sp, #28]
 8001652:	f000 ff0b 	bl	800246c <HAL_GPIO_Init>
 8001656:	2303      	movs	r3, #3
 8001658:	486f      	ldr	r0, [pc, #444]	; (8001818 <main+0x27c>)
 800165a:	a904      	add	r1, sp, #16
 800165c:	e9cd 3404 	strd	r3, r4, [sp, #16]
 8001660:	9406      	str	r4, [sp, #24]
 8001662:	f000 ff03 	bl	800246c <HAL_GPIO_Init>
 8001666:	f44f 435d 	mov.w	r3, #56576	; 0xdd00
 800166a:	486b      	ldr	r0, [pc, #428]	; (8001818 <main+0x27c>)
 800166c:	a904      	add	r1, sp, #16
 800166e:	e9cd 3604 	strd	r3, r6, [sp, #16]
 8001672:	e9cd 4806 	strd	r4, r8, [sp, #24]
 8001676:	f000 fef9 	bl	800246c <HAL_GPIO_Init>
 800167a:	f44f 5308 	mov.w	r3, #8704	; 0x2200
 800167e:	4866      	ldr	r0, [pc, #408]	; (8001818 <main+0x27c>)
 8001680:	a904      	add	r1, sp, #16
 8001682:	e9cd 3504 	strd	r3, r5, [sp, #16]
 8001686:	9406      	str	r4, [sp, #24]
 8001688:	4d64      	ldr	r5, [pc, #400]	; (800181c <main+0x280>)
 800168a:	f000 feef 	bl	800246c <HAL_GPIO_Init>
 800168e:	4b64      	ldr	r3, [pc, #400]	; (8001820 <main+0x284>)
 8001690:	4628      	mov	r0, r5
 8001692:	602b      	str	r3, [r5, #0]
 8001694:	f44f 2360 	mov.w	r3, #917504	; 0xe0000
 8001698:	e9cd 4404 	strd	r4, r4, [sp, #16]
 800169c:	9406      	str	r4, [sp, #24]
 800169e:	60ac      	str	r4, [r5, #8]
 80016a0:	732c      	strb	r4, [r5, #12]
 80016a2:	752c      	strb	r4, [r5, #20]
 80016a4:	61eb      	str	r3, [r5, #28]
 80016a6:	606c      	str	r4, [r5, #4]
 80016a8:	612e      	str	r6, [r5, #16]
 80016aa:	f000 fb89 	bl	8001dc0 <HAL_ADC_Init>
 80016ae:	b108      	cbz	r0, 80016b4 <main+0x118>
 80016b0:	f7ff ff28 	bl	8001504 <Error_Handler>
 80016b4:	e9cd 0604 	strd	r0, r6, [sp, #16]
 80016b8:	9006      	str	r0, [sp, #24]
 80016ba:	a904      	add	r1, sp, #16
 80016bc:	4628      	mov	r0, r5
 80016be:	f000 fadb 	bl	8001c78 <HAL_ADC_ConfigChannel>
 80016c2:	2800      	cmp	r0, #0
 80016c4:	d1f4      	bne.n	80016b0 <main+0x114>
 80016c6:	2304      	movs	r3, #4
 80016c8:	4d56      	ldr	r5, [pc, #344]	; (8001824 <main+0x288>)
 80016ca:	4957      	ldr	r1, [pc, #348]	; (8001828 <main+0x28c>)
 80016cc:	f04f 7480 	mov.w	r4, #16777216	; 0x1000000
 80016d0:	e9c5 1300 	strd	r1, r3, [r5]
 80016d4:	f44f 2340 	mov.w	r3, #786432	; 0xc0000
 80016d8:	e9c5 4303 	strd	r4, r3, [r5, #12]
 80016dc:	f44f 1340 	mov.w	r3, #3145728	; 0x300000
 80016e0:	60a8      	str	r0, [r5, #8]
 80016e2:	e9c5 3005 	strd	r3, r0, [r5, #20]
 80016e6:	83a8      	strh	r0, [r5, #28]
 80016e8:	4628      	mov	r0, r5
 80016ea:	f000 fbe7 	bl	8001ebc <HAL_CAN_Init>
 80016ee:	4604      	mov	r4, r0
 80016f0:	2800      	cmp	r0, #0
 80016f2:	d1dd      	bne.n	80016b0 <main+0x114>
 80016f4:	f44f 7310 	mov.w	r3, #576	; 0x240
 80016f8:	f04f 080c 	mov.w	r8, #12
 80016fc:	e9cd 3004 	strd	r3, r0, [sp, #16]
 8001700:	e9cd 3006 	strd	r3, r0, [sp, #24]
 8001704:	230d      	movs	r3, #13
 8001706:	e9cd 060a 	strd	r0, r6, [sp, #40]	; 0x28
 800170a:	a904      	add	r1, sp, #16
 800170c:	4628      	mov	r0, r5
 800170e:	4d47      	ldr	r5, [pc, #284]	; (800182c <main+0x290>)
 8001710:	930d      	str	r3, [sp, #52]	; 0x34
 8001712:	e9cd 6808 	strd	r6, r8, [sp, #32]
 8001716:	960c      	str	r6, [sp, #48]	; 0x30
 8001718:	f000 fc4b 	bl	8001fb2 <HAL_CAN_ConfigFilter>
 800171c:	4b44      	ldr	r3, [pc, #272]	; (8001830 <main+0x294>)
 800171e:	4a45      	ldr	r2, [pc, #276]	; (8001834 <main+0x298>)
 8001720:	4628      	mov	r0, r5
 8001722:	e9c5 2300 	strd	r2, r3, [r5]
 8001726:	e9c5 4402 	strd	r4, r4, [r5, #8]
 800172a:	e9c5 7404 	strd	r7, r4, [r5, #16]
 800172e:	e9c5 4406 	strd	r4, r4, [r5, #24]
 8001732:	622c      	str	r4, [r5, #32]
 8001734:	f001 f980 	bl	8002a38 <HAL_I2C_Init>
 8001738:	4603      	mov	r3, r0
 800173a:	2800      	cmp	r0, #0
 800173c:	d1b8      	bne.n	80016b0 <main+0x114>
 800173e:	f44f 34e1 	mov.w	r4, #115200	; 0x1c200
 8001742:	483d      	ldr	r0, [pc, #244]	; (8001838 <main+0x29c>)
 8001744:	4a3d      	ldr	r2, [pc, #244]	; (800183c <main+0x2a0>)
 8001746:	e9c0 3302 	strd	r3, r3, [r0, #8]
 800174a:	e9c0 3804 	strd	r3, r8, [r0, #16]
 800174e:	e9c0 3306 	strd	r3, r3, [r0, #24]
 8001752:	e9c0 2400 	strd	r2, r4, [r0]
 8001756:	f001 ff4d 	bl	80035f4 <HAL_UART_Init>
 800175a:	4603      	mov	r3, r0
 800175c:	2800      	cmp	r0, #0
 800175e:	d1a7      	bne.n	80016b0 <main+0x114>
 8001760:	4837      	ldr	r0, [pc, #220]	; (8001840 <main+0x2a4>)
 8001762:	4a38      	ldr	r2, [pc, #224]	; (8001844 <main+0x2a8>)
 8001764:	e9c0 3302 	strd	r3, r3, [r0, #8]
 8001768:	e9c0 2400 	strd	r2, r4, [r0]
 800176c:	e9c0 3804 	strd	r3, r8, [r0, #16]
 8001770:	e9c0 3306 	strd	r3, r3, [r0, #24]
 8001774:	f001 ff3e 	bl	80035f4 <HAL_UART_Init>
 8001778:	4604      	mov	r4, r0
 800177a:	2800      	cmp	r0, #0
 800177c:	d198      	bne.n	80016b0 <main+0x114>
 800177e:	4629      	mov	r1, r5
 8001780:	4630      	mov	r0, r6
 8001782:	f7ff fbb1 	bl	8000ee8 <initVL53L0X>
 8001786:	b1a0      	cbz	r0, 80017b2 <main+0x216>
 8001788:	4622      	mov	r2, r4
 800178a:	f44f 6100 	mov.w	r1, #2048	; 0x800
 800178e:	4822      	ldr	r0, [pc, #136]	; (8001818 <main+0x27c>)
 8001790:	f000 ff46 	bl	8002620 <HAL_GPIO_WritePin>
 8001794:	4622      	mov	r2, r4
 8001796:	f44f 5180 	mov.w	r1, #4096	; 0x1000
 800179a:	481f      	ldr	r0, [pc, #124]	; (8001818 <main+0x27c>)
 800179c:	f000 ff40 	bl	8002620 <HAL_GPIO_WritePin>
 80017a0:	481d      	ldr	r0, [pc, #116]	; (8001818 <main+0x27c>)
 80017a2:	4622      	mov	r2, r4
 80017a4:	f44f 6180 	mov.w	r1, #1024	; 0x400
 80017a8:	f000 ff3a 	bl	8002620 <HAL_GPIO_WritePin>
 80017ac:	4826      	ldr	r0, [pc, #152]	; (8001848 <main+0x2ac>)
 80017ae:	f002 f8c3 	bl	8003938 <puts>
 80017b2:	2200      	movs	r2, #0
 80017b4:	f44f 6100 	mov.w	r1, #2048	; 0x800
 80017b8:	4817      	ldr	r0, [pc, #92]	; (8001818 <main+0x27c>)
 80017ba:	f000 ff31 	bl	8002620 <HAL_GPIO_WritePin>
 80017be:	2200      	movs	r2, #0
 80017c0:	f44f 5180 	mov.w	r1, #4096	; 0x1000
 80017c4:	4814      	ldr	r0, [pc, #80]	; (8001818 <main+0x27c>)
 80017c6:	f000 ff2b 	bl	8002620 <HAL_GPIO_WritePin>
 80017ca:	2200      	movs	r2, #0
 80017cc:	f44f 6180 	mov.w	r1, #1024	; 0x400
 80017d0:	4811      	ldr	r0, [pc, #68]	; (8001818 <main+0x27c>)
 80017d2:	f000 ff25 	bl	8002620 <HAL_GPIO_WritePin>
 80017d6:	481d      	ldr	r0, [pc, #116]	; (800184c <main+0x2b0>)
 80017d8:	f7ff f90e 	bl	80009f8 <setSignalRateLimit>
 80017dc:	210a      	movs	r1, #10
 80017de:	2000      	movs	r0, #0
 80017e0:	f7ff fd9c 	bl	800131c <setVcselPulsePeriod>
 80017e4:	210e      	movs	r1, #14
 80017e6:	2001      	movs	r0, #1
 80017e8:	f7ff fd98 	bl	800131c <setVcselPulsePeriod>
 80017ec:	4818      	ldr	r0, [pc, #96]	; (8001850 <main+0x2b4>)
 80017ee:	f7ff fac7 	bl	8000d80 <setMeasurementTimingBudget>
 80017f2:	4818      	ldr	r0, [pc, #96]	; (8001854 <main+0x2b8>)
 80017f4:	f002 f8a0 	bl	8003938 <puts>
 80017f8:	4c17      	ldr	r4, [pc, #92]	; (8001858 <main+0x2bc>)
 80017fa:	a804      	add	r0, sp, #16
 80017fc:	f7ff f97e 	bl	8000afc <readRangeSingleMillimeters>
 8001800:	4601      	mov	r1, r0
 8001802:	4620      	mov	r0, r4
 8001804:	f002 f832 	bl	800386c <iprintf>
 8001808:	e7f7      	b.n	80017fa <main+0x25e>
 800180a:	bf00      	nop
 800180c:	40021000 	.word	0x40021000
 8001810:	40011000 	.word	0x40011000
 8001814:	10110000 	.word	0x10110000
 8001818:	40010c00 	.word	0x40010c00
 800181c:	20000114 	.word	0x20000114
 8001820:	40012400 	.word	0x40012400
 8001824:	20000144 	.word	0x20000144
 8001828:	40006400 	.word	0x40006400
 800182c:	2000016c 	.word	0x2000016c
 8001830:	000186a0 	.word	0x000186a0
 8001834:	40005400 	.word	0x40005400
 8001838:	200001c0 	.word	0x200001c0
 800183c:	40013800 	.word	0x40013800
 8001840:	20000208 	.word	0x20000208
 8001844:	40004400 	.word	0x40004400
 8001848:	08004650 	.word	0x08004650
 800184c:	43480000 	.word	0x43480000
 8001850:	000493e0 	.word	0x000493e0
 8001854:	08004659 	.word	0x08004659
 8001858:	08004661 	.word	0x08004661

0800185c <HAL_MspInit>:
 800185c:	4b0e      	ldr	r3, [pc, #56]	; (8001898 <HAL_MspInit+0x3c>)
 800185e:	b082      	sub	sp, #8
 8001860:	699a      	ldr	r2, [r3, #24]
 8001862:	f042 0201 	orr.w	r2, r2, #1
 8001866:	619a      	str	r2, [r3, #24]
 8001868:	699a      	ldr	r2, [r3, #24]
 800186a:	f002 0201 	and.w	r2, r2, #1
 800186e:	9200      	str	r2, [sp, #0]
 8001870:	9a00      	ldr	r2, [sp, #0]
 8001872:	69da      	ldr	r2, [r3, #28]
 8001874:	f042 5280 	orr.w	r2, r2, #268435456	; 0x10000000
 8001878:	61da      	str	r2, [r3, #28]
 800187a:	69db      	ldr	r3, [r3, #28]
 800187c:	4a07      	ldr	r2, [pc, #28]	; (800189c <HAL_MspInit+0x40>)
 800187e:	f003 5380 	and.w	r3, r3, #268435456	; 0x10000000
 8001882:	9301      	str	r3, [sp, #4]
 8001884:	9b01      	ldr	r3, [sp, #4]
 8001886:	6853      	ldr	r3, [r2, #4]
 8001888:	f023 63e0 	bic.w	r3, r3, #117440512	; 0x7000000
 800188c:	f043 6380 	orr.w	r3, r3, #67108864	; 0x4000000
 8001890:	6053      	str	r3, [r2, #4]
 8001892:	b002      	add	sp, #8
 8001894:	4770      	bx	lr
 8001896:	bf00      	nop
 8001898:	40021000 	.word	0x40021000
 800189c:	40010000 	.word	0x40010000

080018a0 <HAL_ADC_MspInit>:
 80018a0:	b510      	push	{r4, lr}
 80018a2:	4604      	mov	r4, r0
 80018a4:	b086      	sub	sp, #24
 80018a6:	2210      	movs	r2, #16
 80018a8:	2100      	movs	r1, #0
 80018aa:	a802      	add	r0, sp, #8
 80018ac:	f002 f924 	bl	8003af8 <memset>
 80018b0:	6822      	ldr	r2, [r4, #0]
 80018b2:	4b10      	ldr	r3, [pc, #64]	; (80018f4 <HAL_ADC_MspInit+0x54>)
 80018b4:	429a      	cmp	r2, r3
 80018b6:	d11b      	bne.n	80018f0 <HAL_ADC_MspInit+0x50>
 80018b8:	f503 436c 	add.w	r3, r3, #60416	; 0xec00
 80018bc:	699a      	ldr	r2, [r3, #24]
 80018be:	480e      	ldr	r0, [pc, #56]	; (80018f8 <HAL_ADC_MspInit+0x58>)
 80018c0:	f442 7200 	orr.w	r2, r2, #512	; 0x200
 80018c4:	619a      	str	r2, [r3, #24]
 80018c6:	699a      	ldr	r2, [r3, #24]
 80018c8:	a902      	add	r1, sp, #8
 80018ca:	f402 7200 	and.w	r2, r2, #512	; 0x200
 80018ce:	9200      	str	r2, [sp, #0]
 80018d0:	9a00      	ldr	r2, [sp, #0]
 80018d2:	699a      	ldr	r2, [r3, #24]
 80018d4:	f042 0204 	orr.w	r2, r2, #4
 80018d8:	619a      	str	r2, [r3, #24]
 80018da:	699b      	ldr	r3, [r3, #24]
 80018dc:	2201      	movs	r2, #1
 80018de:	f003 0304 	and.w	r3, r3, #4
 80018e2:	9301      	str	r3, [sp, #4]
 80018e4:	9b01      	ldr	r3, [sp, #4]
 80018e6:	2303      	movs	r3, #3
 80018e8:	e9cd 2302 	strd	r2, r3, [sp, #8]
 80018ec:	f000 fdbe 	bl	800246c <HAL_GPIO_Init>
 80018f0:	b006      	add	sp, #24
 80018f2:	bd10      	pop	{r4, pc}
 80018f4:	40012400 	.word	0x40012400
 80018f8:	40010800 	.word	0x40010800

080018fc <HAL_CAN_MspInit>:
 80018fc:	b510      	push	{r4, lr}
 80018fe:	4604      	mov	r4, r0
 8001900:	b086      	sub	sp, #24
 8001902:	2210      	movs	r2, #16
 8001904:	2100      	movs	r1, #0
 8001906:	a802      	add	r0, sp, #8
 8001908:	f002 f8f6 	bl	8003af8 <memset>
 800190c:	6822      	ldr	r2, [r4, #0]
 800190e:	4b19      	ldr	r3, [pc, #100]	; (8001974 <HAL_CAN_MspInit+0x78>)
 8001910:	429a      	cmp	r2, r3
 8001912:	d12d      	bne.n	8001970 <HAL_CAN_MspInit+0x74>
 8001914:	f503 33d6 	add.w	r3, r3, #109568	; 0x1ac00
 8001918:	69da      	ldr	r2, [r3, #28]
 800191a:	4817      	ldr	r0, [pc, #92]	; (8001978 <HAL_CAN_MspInit+0x7c>)
 800191c:	f042 7200 	orr.w	r2, r2, #33554432	; 0x2000000
 8001920:	61da      	str	r2, [r3, #28]
 8001922:	69da      	ldr	r2, [r3, #28]
 8001924:	a902      	add	r1, sp, #8
 8001926:	f002 7200 	and.w	r2, r2, #33554432	; 0x2000000
 800192a:	9200      	str	r2, [sp, #0]
 800192c:	9a00      	ldr	r2, [sp, #0]
 800192e:	699a      	ldr	r2, [r3, #24]
 8001930:	f042 0204 	orr.w	r2, r2, #4
 8001934:	619a      	str	r2, [r3, #24]
 8001936:	699b      	ldr	r3, [r3, #24]
 8001938:	f003 0304 	and.w	r3, r3, #4
 800193c:	9301      	str	r3, [sp, #4]
 800193e:	9b01      	ldr	r3, [sp, #4]
 8001940:	f44f 6300 	mov.w	r3, #2048	; 0x800
 8001944:	9302      	str	r3, [sp, #8]
 8001946:	f000 fd91 	bl	800246c <HAL_GPIO_Init>
 800194a:	f44f 5280 	mov.w	r2, #4096	; 0x1000
 800194e:	2302      	movs	r3, #2
 8001950:	e9cd 2302 	strd	r2, r3, [sp, #8]
 8001954:	2303      	movs	r3, #3
 8001956:	4808      	ldr	r0, [pc, #32]	; (8001978 <HAL_CAN_MspInit+0x7c>)
 8001958:	a902      	add	r1, sp, #8
 800195a:	9305      	str	r3, [sp, #20]
 800195c:	f000 fd86 	bl	800246c <HAL_GPIO_Init>
 8001960:	2200      	movs	r2, #0
 8001962:	2015      	movs	r0, #21
 8001964:	4611      	mov	r1, r2
 8001966:	f000 fd2f 	bl	80023c8 <HAL_NVIC_SetPriority>
 800196a:	2015      	movs	r0, #21
 800196c:	f000 fd5c 	bl	8002428 <HAL_NVIC_EnableIRQ>
 8001970:	b006      	add	sp, #24
 8001972:	bd10      	pop	{r4, pc}
 8001974:	40006400 	.word	0x40006400
 8001978:	40010800 	.word	0x40010800

0800197c <HAL_I2C_MspInit>:
 800197c:	b510      	push	{r4, lr}
 800197e:	4604      	mov	r4, r0
 8001980:	b086      	sub	sp, #24
 8001982:	2210      	movs	r2, #16
 8001984:	2100      	movs	r1, #0
 8001986:	a802      	add	r0, sp, #8
 8001988:	f002 f8b6 	bl	8003af8 <memset>
 800198c:	6822      	ldr	r2, [r4, #0]
 800198e:	4b11      	ldr	r3, [pc, #68]	; (80019d4 <HAL_I2C_MspInit+0x58>)
 8001990:	429a      	cmp	r2, r3
 8001992:	d11c      	bne.n	80019ce <HAL_I2C_MspInit+0x52>
 8001994:	4c10      	ldr	r4, [pc, #64]	; (80019d8 <HAL_I2C_MspInit+0x5c>)
 8001996:	22c0      	movs	r2, #192	; 0xc0
 8001998:	69a3      	ldr	r3, [r4, #24]
 800199a:	4810      	ldr	r0, [pc, #64]	; (80019dc <HAL_I2C_MspInit+0x60>)
 800199c:	f043 0308 	orr.w	r3, r3, #8
 80019a0:	61a3      	str	r3, [r4, #24]
 80019a2:	69a3      	ldr	r3, [r4, #24]
 80019a4:	a902      	add	r1, sp, #8
 80019a6:	f003 0308 	and.w	r3, r3, #8
 80019aa:	9300      	str	r3, [sp, #0]
 80019ac:	9b00      	ldr	r3, [sp, #0]
 80019ae:	2312      	movs	r3, #18
 80019b0:	e9cd 2302 	strd	r2, r3, [sp, #8]
 80019b4:	2303      	movs	r3, #3
 80019b6:	9305      	str	r3, [sp, #20]
 80019b8:	f000 fd58 	bl	800246c <HAL_GPIO_Init>
 80019bc:	69e3      	ldr	r3, [r4, #28]
 80019be:	f443 1300 	orr.w	r3, r3, #2097152	; 0x200000
 80019c2:	61e3      	str	r3, [r4, #28]
 80019c4:	69e3      	ldr	r3, [r4, #28]
 80019c6:	f403 1300 	and.w	r3, r3, #2097152	; 0x200000
 80019ca:	9301      	str	r3, [sp, #4]
 80019cc:	9b01      	ldr	r3, [sp, #4]
 80019ce:	b006      	add	sp, #24
 80019d0:	bd10      	pop	{r4, pc}
 80019d2:	bf00      	nop
 80019d4:	40005400 	.word	0x40005400
 80019d8:	40021000 	.word	0x40021000
 80019dc:	40010c00 	.word	0x40010c00

080019e0 <HAL_UART_MspInit>:
 80019e0:	2210      	movs	r2, #16
 80019e2:	b510      	push	{r4, lr}
 80019e4:	4604      	mov	r4, r0
 80019e6:	b088      	sub	sp, #32
 80019e8:	eb0d 0002 	add.w	r0, sp, r2
 80019ec:	2100      	movs	r1, #0
 80019ee:	f002 f883 	bl	8003af8 <memset>
 80019f2:	6823      	ldr	r3, [r4, #0]
 80019f4:	4a27      	ldr	r2, [pc, #156]	; (8001a94 <HAL_UART_MspInit+0xb4>)
 80019f6:	4293      	cmp	r3, r2
 80019f8:	d129      	bne.n	8001a4e <HAL_UART_MspInit+0x6e>
 80019fa:	4b27      	ldr	r3, [pc, #156]	; (8001a98 <HAL_UART_MspInit+0xb8>)
 80019fc:	f44f 7100 	mov.w	r1, #512	; 0x200
 8001a00:	699a      	ldr	r2, [r3, #24]
 8001a02:	4826      	ldr	r0, [pc, #152]	; (8001a9c <HAL_UART_MspInit+0xbc>)
 8001a04:	f442 4280 	orr.w	r2, r2, #16384	; 0x4000
 8001a08:	619a      	str	r2, [r3, #24]
 8001a0a:	699a      	ldr	r2, [r3, #24]
 8001a0c:	f402 4280 	and.w	r2, r2, #16384	; 0x4000
 8001a10:	9200      	str	r2, [sp, #0]
 8001a12:	9a00      	ldr	r2, [sp, #0]
 8001a14:	699a      	ldr	r2, [r3, #24]
 8001a16:	f042 0204 	orr.w	r2, r2, #4
 8001a1a:	619a      	str	r2, [r3, #24]
 8001a1c:	699b      	ldr	r3, [r3, #24]
 8001a1e:	f003 0304 	and.w	r3, r3, #4
 8001a22:	9301      	str	r3, [sp, #4]
 8001a24:	9b01      	ldr	r3, [sp, #4]
 8001a26:	2302      	movs	r3, #2
 8001a28:	e9cd 1304 	strd	r1, r3, [sp, #16]
 8001a2c:	2303      	movs	r3, #3
 8001a2e:	a904      	add	r1, sp, #16
 8001a30:	9307      	str	r3, [sp, #28]
 8001a32:	f000 fd1b 	bl	800246c <HAL_GPIO_Init>
 8001a36:	f44f 6380 	mov.w	r3, #1024	; 0x400
 8001a3a:	9304      	str	r3, [sp, #16]
 8001a3c:	2300      	movs	r3, #0
 8001a3e:	4817      	ldr	r0, [pc, #92]	; (8001a9c <HAL_UART_MspInit+0xbc>)
 8001a40:	a904      	add	r1, sp, #16
 8001a42:	e9cd 3305 	strd	r3, r3, [sp, #20]
 8001a46:	f000 fd11 	bl	800246c <HAL_GPIO_Init>
 8001a4a:	b008      	add	sp, #32
 8001a4c:	bd10      	pop	{r4, pc}
 8001a4e:	4a14      	ldr	r2, [pc, #80]	; (8001aa0 <HAL_UART_MspInit+0xc0>)
 8001a50:	4293      	cmp	r3, r2
 8001a52:	d1fa      	bne.n	8001a4a <HAL_UART_MspInit+0x6a>
 8001a54:	4b10      	ldr	r3, [pc, #64]	; (8001a98 <HAL_UART_MspInit+0xb8>)
 8001a56:	4811      	ldr	r0, [pc, #68]	; (8001a9c <HAL_UART_MspInit+0xbc>)
 8001a58:	69da      	ldr	r2, [r3, #28]
 8001a5a:	a904      	add	r1, sp, #16
 8001a5c:	f442 3200 	orr.w	r2, r2, #131072	; 0x20000
 8001a60:	61da      	str	r2, [r3, #28]
 8001a62:	69da      	ldr	r2, [r3, #28]
 8001a64:	f402 3200 	and.w	r2, r2, #131072	; 0x20000
 8001a68:	9202      	str	r2, [sp, #8]
 8001a6a:	9a02      	ldr	r2, [sp, #8]
 8001a6c:	699a      	ldr	r2, [r3, #24]
 8001a6e:	f042 0204 	orr.w	r2, r2, #4
 8001a72:	619a      	str	r2, [r3, #24]
 8001a74:	699b      	ldr	r3, [r3, #24]
 8001a76:	2204      	movs	r2, #4
 8001a78:	f003 0304 	and.w	r3, r3, #4
 8001a7c:	9303      	str	r3, [sp, #12]
 8001a7e:	9b03      	ldr	r3, [sp, #12]
 8001a80:	2302      	movs	r3, #2
 8001a82:	e9cd 2304 	strd	r2, r3, [sp, #16]
 8001a86:	2303      	movs	r3, #3
 8001a88:	9307      	str	r3, [sp, #28]
 8001a8a:	f000 fcef 	bl	800246c <HAL_GPIO_Init>
 8001a8e:	2308      	movs	r3, #8
 8001a90:	e7d3      	b.n	8001a3a <HAL_UART_MspInit+0x5a>
 8001a92:	bf00      	nop
 8001a94:	40013800 	.word	0x40013800
 8001a98:	40021000 	.word	0x40021000
 8001a9c:	40010800 	.word	0x40010800
 8001aa0:	40004400 	.word	0x40004400

08001aa4 <NMI_Handler>:
 8001aa4:	e7fe      	b.n	8001aa4 <NMI_Handler>

08001aa6 <HardFault_Handler>:
 8001aa6:	e7fe      	b.n	8001aa6 <HardFault_Handler>

08001aa8 <MemManage_Handler>:
 8001aa8:	e7fe      	b.n	8001aa8 <MemManage_Handler>

08001aaa <BusFault_Handler>:
 8001aaa:	e7fe      	b.n	8001aaa <BusFault_Handler>

08001aac <UsageFault_Handler>:
 8001aac:	e7fe      	b.n	8001aac <UsageFault_Handler>

08001aae <SVC_Handler>:
 8001aae:	4770      	bx	lr

08001ab0 <DebugMon_Handler>:
 8001ab0:	4770      	bx	lr

08001ab2 <PendSV_Handler>:
 8001ab2:	4770      	bx	lr

08001ab4 <SysTick_Handler>:
 8001ab4:	f000 b8bc 	b.w	8001c30 <HAL_IncTick>

08001ab8 <CAN1_RX1_IRQHandler>:
 8001ab8:	4801      	ldr	r0, [pc, #4]	; (8001ac0 <CAN1_RX1_IRQHandler+0x8>)
 8001aba:	f000 bb74 	b.w	80021a6 <HAL_CAN_IRQHandler>
 8001abe:	bf00      	nop
 8001ac0:	20000144 	.word	0x20000144

08001ac4 <_read>:
 8001ac4:	b570      	push	{r4, r5, r6, lr}
 8001ac6:	460d      	mov	r5, r1
 8001ac8:	4614      	mov	r4, r2
 8001aca:	460e      	mov	r6, r1
 8001acc:	1b73      	subs	r3, r6, r5
 8001ace:	429c      	cmp	r4, r3
 8001ad0:	dc01      	bgt.n	8001ad6 <_read+0x12>
 8001ad2:	4620      	mov	r0, r4
 8001ad4:	bd70      	pop	{r4, r5, r6, pc}
 8001ad6:	f3af 8000 	nop.w
 8001ada:	f806 0b01 	strb.w	r0, [r6], #1
 8001ade:	e7f5      	b.n	8001acc <_read+0x8>

08001ae0 <_write>:
 8001ae0:	b570      	push	{r4, r5, r6, lr}
 8001ae2:	460d      	mov	r5, r1
 8001ae4:	4614      	mov	r4, r2
 8001ae6:	460e      	mov	r6, r1
 8001ae8:	1b73      	subs	r3, r6, r5
 8001aea:	429c      	cmp	r4, r3
 8001aec:	dc01      	bgt.n	8001af2 <_write+0x12>
 8001aee:	4620      	mov	r0, r4
 8001af0:	bd70      	pop	{r4, r5, r6, pc}
 8001af2:	f816 0b01 	ldrb.w	r0, [r6], #1
 8001af6:	f000 f82f 	bl	8001b58 <__io_putchar>
 8001afa:	e7f5      	b.n	8001ae8 <_write+0x8>

08001afc <_close>:
 8001afc:	f04f 30ff 	mov.w	r0, #4294967295
 8001b00:	4770      	bx	lr

08001b02 <_fstat>:
 8001b02:	f44f 5300 	mov.w	r3, #8192	; 0x2000
 8001b06:	2000      	movs	r0, #0
 8001b08:	604b      	str	r3, [r1, #4]
 8001b0a:	4770      	bx	lr

08001b0c <_isatty>:
 8001b0c:	2001      	movs	r0, #1
 8001b0e:	4770      	bx	lr

08001b10 <_lseek>:
 8001b10:	2000      	movs	r0, #0
 8001b12:	4770      	bx	lr

08001b14 <_sbrk>:
 8001b14:	4a0b      	ldr	r2, [pc, #44]	; (8001b44 <_sbrk+0x30>)
 8001b16:	4603      	mov	r3, r0
 8001b18:	6811      	ldr	r1, [r2, #0]
 8001b1a:	b510      	push	{r4, lr}
 8001b1c:	b909      	cbnz	r1, 8001b22 <_sbrk+0xe>
 8001b1e:	490a      	ldr	r1, [pc, #40]	; (8001b48 <_sbrk+0x34>)
 8001b20:	6011      	str	r1, [r2, #0]
 8001b22:	6810      	ldr	r0, [r2, #0]
 8001b24:	4909      	ldr	r1, [pc, #36]	; (8001b4c <_sbrk+0x38>)
 8001b26:	4c0a      	ldr	r4, [pc, #40]	; (8001b50 <_sbrk+0x3c>)
 8001b28:	4403      	add	r3, r0
 8001b2a:	1b09      	subs	r1, r1, r4
 8001b2c:	428b      	cmp	r3, r1
 8001b2e:	d906      	bls.n	8001b3e <_sbrk+0x2a>
 8001b30:	f002 f830 	bl	8003b94 <__errno>
 8001b34:	230c      	movs	r3, #12
 8001b36:	6003      	str	r3, [r0, #0]
 8001b38:	f04f 30ff 	mov.w	r0, #4294967295
 8001b3c:	bd10      	pop	{r4, pc}
 8001b3e:	6013      	str	r3, [r2, #0]
 8001b40:	e7fc      	b.n	8001b3c <_sbrk+0x28>
 8001b42:	bf00      	nop
 8001b44:	20000250 	.word	0x20000250
 8001b48:	200003a8 	.word	0x200003a8
 8001b4c:	20005000 	.word	0x20005000
 8001b50:	00000400 	.word	0x00000400

08001b54 <SystemInit>:
 8001b54:	4770      	bx	lr
	...

08001b58 <__io_putchar>:
 8001b58:	b507      	push	{r0, r1, r2, lr}
 8001b5a:	f04f 33ff 	mov.w	r3, #4294967295
 8001b5e:	9001      	str	r0, [sp, #4]
 8001b60:	2201      	movs	r2, #1
 8001b62:	a901      	add	r1, sp, #4
 8001b64:	4803      	ldr	r0, [pc, #12]	; (8001b74 <__io_putchar+0x1c>)
 8001b66:	f001 fd74 	bl	8003652 <HAL_UART_Transmit>
 8001b6a:	9801      	ldr	r0, [sp, #4]
 8001b6c:	b003      	add	sp, #12
 8001b6e:	f85d fb04 	ldr.w	pc, [sp], #4
 8001b72:	bf00      	nop
 8001b74:	20000208 	.word	0x20000208

08001b78 <Reset_Handler>:
 8001b78:	f7ff ffec 	bl	8001b54 <SystemInit>
 8001b7c:	480b      	ldr	r0, [pc, #44]	; (8001bac <LoopFillZerobss+0xe>)
 8001b7e:	490c      	ldr	r1, [pc, #48]	; (8001bb0 <LoopFillZerobss+0x12>)
 8001b80:	4a0c      	ldr	r2, [pc, #48]	; (8001bb4 <LoopFillZerobss+0x16>)
 8001b82:	2300      	movs	r3, #0
 8001b84:	e002      	b.n	8001b8c <LoopCopyDataInit>

08001b86 <CopyDataInit>:
 8001b86:	58d4      	ldr	r4, [r2, r3]
 8001b88:	50c4      	str	r4, [r0, r3]
 8001b8a:	3304      	adds	r3, #4

08001b8c <LoopCopyDataInit>:
 8001b8c:	18c4      	adds	r4, r0, r3
 8001b8e:	428c      	cmp	r4, r1
 8001b90:	d3f9      	bcc.n	8001b86 <CopyDataInit>
 8001b92:	4a09      	ldr	r2, [pc, #36]	; (8001bb8 <LoopFillZerobss+0x1a>)
 8001b94:	4c09      	ldr	r4, [pc, #36]	; (8001bbc <LoopFillZerobss+0x1e>)
 8001b96:	2300      	movs	r3, #0
 8001b98:	e001      	b.n	8001b9e <LoopFillZerobss>

08001b9a <FillZerobss>:
 8001b9a:	6013      	str	r3, [r2, #0]
 8001b9c:	3204      	adds	r2, #4

08001b9e <LoopFillZerobss>:
 8001b9e:	42a2      	cmp	r2, r4
 8001ba0:	d3fb      	bcc.n	8001b9a <FillZerobss>
 8001ba2:	f001 fffd 	bl	8003ba0 <__libc_init_array>
 8001ba6:	f7ff fcf9 	bl	800159c <main>
 8001baa:	4770      	bx	lr
 8001bac:	20000000 	.word	0x20000000
 8001bb0:	2000006c 	.word	0x2000006c
 8001bb4:	080046d8 	.word	0x080046d8
 8001bb8:	2000006c 	.word	0x2000006c
 8001bbc:	200003a4 	.word	0x200003a4

08001bc0 <ADC1_2_IRQHandler>:
 8001bc0:	e7fe      	b.n	8001bc0 <ADC1_2_IRQHandler>
	...

08001bc4 <HAL_InitTick>:
 8001bc4:	b538      	push	{r3, r4, r5, lr}
 8001bc6:	4b0e      	ldr	r3, [pc, #56]	; (8001c00 <HAL_InitTick+0x3c>)
 8001bc8:	4605      	mov	r5, r0
 8001bca:	781a      	ldrb	r2, [r3, #0]
 8001bcc:	f44f 737a 	mov.w	r3, #1000	; 0x3e8
 8001bd0:	fbb3 f3f2 	udiv	r3, r3, r2
 8001bd4:	4a0b      	ldr	r2, [pc, #44]	; (8001c04 <HAL_InitTick+0x40>)
 8001bd6:	6810      	ldr	r0, [r2, #0]
 8001bd8:	fbb0 f0f3 	udiv	r0, r0, r3
 8001bdc:	f000 fc32 	bl	8002444 <HAL_SYSTICK_Config>
 8001be0:	4604      	mov	r4, r0
 8001be2:	b958      	cbnz	r0, 8001bfc <HAL_InitTick+0x38>
 8001be4:	2d0f      	cmp	r5, #15
 8001be6:	d809      	bhi.n	8001bfc <HAL_InitTick+0x38>
 8001be8:	4602      	mov	r2, r0
 8001bea:	4629      	mov	r1, r5
 8001bec:	f04f 30ff 	mov.w	r0, #4294967295
 8001bf0:	f000 fbea 	bl	80023c8 <HAL_NVIC_SetPriority>
 8001bf4:	4620      	mov	r0, r4
 8001bf6:	4b04      	ldr	r3, [pc, #16]	; (8001c08 <HAL_InitTick+0x44>)
 8001bf8:	601d      	str	r5, [r3, #0]
 8001bfa:	bd38      	pop	{r3, r4, r5, pc}
 8001bfc:	2001      	movs	r0, #1
 8001bfe:	e7fc      	b.n	8001bfa <HAL_InitTick+0x36>
 8001c00:	20000008 	.word	0x20000008
 8001c04:	20000004 	.word	0x20000004
 8001c08:	2000000c 	.word	0x2000000c

08001c0c <HAL_Init>:
 8001c0c:	4a07      	ldr	r2, [pc, #28]	; (8001c2c <HAL_Init+0x20>)
 8001c0e:	b508      	push	{r3, lr}
 8001c10:	6813      	ldr	r3, [r2, #0]
 8001c12:	2003      	movs	r0, #3
 8001c14:	f043 0310 	orr.w	r3, r3, #16
 8001c18:	6013      	str	r3, [r2, #0]
 8001c1a:	f000 fbc3 	bl	80023a4 <HAL_NVIC_SetPriorityGrouping>
 8001c1e:	200f      	movs	r0, #15
 8001c20:	f7ff ffd0 	bl	8001bc4 <HAL_InitTick>
 8001c24:	f7ff fe1a 	bl	800185c <HAL_MspInit>
 8001c28:	2000      	movs	r0, #0
 8001c2a:	bd08      	pop	{r3, pc}
 8001c2c:	40022000 	.word	0x40022000

08001c30 <HAL_IncTick>:
 8001c30:	4a03      	ldr	r2, [pc, #12]	; (8001c40 <HAL_IncTick+0x10>)
 8001c32:	4b04      	ldr	r3, [pc, #16]	; (8001c44 <HAL_IncTick+0x14>)
 8001c34:	6811      	ldr	r1, [r2, #0]
 8001c36:	781b      	ldrb	r3, [r3, #0]
 8001c38:	440b      	add	r3, r1
 8001c3a:	6013      	str	r3, [r2, #0]
 8001c3c:	4770      	bx	lr
 8001c3e:	bf00      	nop
 8001c40:	20000254 	.word	0x20000254
 8001c44:	20000008 	.word	0x20000008

08001c48 <HAL_GetTick>:
 8001c48:	4b01      	ldr	r3, [pc, #4]	; (8001c50 <HAL_GetTick+0x8>)
 8001c4a:	6818      	ldr	r0, [r3, #0]
 8001c4c:	4770      	bx	lr
 8001c4e:	bf00      	nop
 8001c50:	20000254 	.word	0x20000254

08001c54 <HAL_Delay>:
 8001c54:	b538      	push	{r3, r4, r5, lr}
 8001c56:	4604      	mov	r4, r0
 8001c58:	f7ff fff6 	bl	8001c48 <HAL_GetTick>
 8001c5c:	4605      	mov	r5, r0
 8001c5e:	1c63      	adds	r3, r4, #1
 8001c60:	bf1e      	ittt	ne
 8001c62:	4b04      	ldrne	r3, [pc, #16]	; (8001c74 <HAL_Delay+0x20>)
 8001c64:	781b      	ldrbne	r3, [r3, #0]
 8001c66:	18e4      	addne	r4, r4, r3
 8001c68:	f7ff ffee 	bl	8001c48 <HAL_GetTick>
 8001c6c:	1b43      	subs	r3, r0, r5
 8001c6e:	42a3      	cmp	r3, r4
 8001c70:	d3fa      	bcc.n	8001c68 <HAL_Delay+0x14>
 8001c72:	bd38      	pop	{r3, r4, r5, pc}
 8001c74:	20000008 	.word	0x20000008

08001c78 <HAL_ADC_ConfigChannel>:
 8001c78:	2300      	movs	r3, #0
 8001c7a:	b573      	push	{r0, r1, r4, r5, r6, lr}
 8001c7c:	9301      	str	r3, [sp, #4]
 8001c7e:	f890 3024 	ldrb.w	r3, [r0, #36]	; 0x24
 8001c82:	4604      	mov	r4, r0
 8001c84:	2b01      	cmp	r3, #1
 8001c86:	d06c      	beq.n	8001d62 <HAL_ADC_ConfigChannel+0xea>
 8001c88:	2301      	movs	r3, #1
 8001c8a:	f880 3024 	strb.w	r3, [r0, #36]	; 0x24
 8001c8e:	684d      	ldr	r5, [r1, #4]
 8001c90:	6802      	ldr	r2, [r0, #0]
 8001c92:	2d06      	cmp	r5, #6
 8001c94:	6808      	ldr	r0, [r1, #0]
 8001c96:	eb05 0385 	add.w	r3, r5, r5, lsl #2
 8001c9a:	d822      	bhi.n	8001ce2 <HAL_ADC_ConfigChannel+0x6a>
 8001c9c:	261f      	movs	r6, #31
 8001c9e:	6b55      	ldr	r5, [r2, #52]	; 0x34
 8001ca0:	3b05      	subs	r3, #5
 8001ca2:	409e      	lsls	r6, r3
 8001ca4:	ea25 0506 	bic.w	r5, r5, r6
 8001ca8:	fa00 f303 	lsl.w	r3, r0, r3
 8001cac:	432b      	orrs	r3, r5
 8001cae:	6353      	str	r3, [r2, #52]	; 0x34
 8001cb0:	2809      	cmp	r0, #9
 8001cb2:	688b      	ldr	r3, [r1, #8]
 8001cb4:	eb00 0540 	add.w	r5, r0, r0, lsl #1
 8001cb8:	f04f 0107 	mov.w	r1, #7
 8001cbc:	d929      	bls.n	8001d12 <HAL_ADC_ConfigChannel+0x9a>
 8001cbe:	68d6      	ldr	r6, [r2, #12]
 8001cc0:	3d1e      	subs	r5, #30
 8001cc2:	40a9      	lsls	r1, r5
 8001cc4:	ea26 0101 	bic.w	r1, r6, r1
 8001cc8:	40ab      	lsls	r3, r5
 8001cca:	430b      	orrs	r3, r1
 8001ccc:	60d3      	str	r3, [r2, #12]
 8001cce:	f1a0 0310 	sub.w	r3, r0, #16
 8001cd2:	2b01      	cmp	r3, #1
 8001cd4:	d925      	bls.n	8001d22 <HAL_ADC_ConfigChannel+0xaa>
 8001cd6:	2000      	movs	r0, #0
 8001cd8:	2300      	movs	r3, #0
 8001cda:	f884 3024 	strb.w	r3, [r4, #36]	; 0x24
 8001cde:	b002      	add	sp, #8
 8001ce0:	bd70      	pop	{r4, r5, r6, pc}
 8001ce2:	2d0c      	cmp	r5, #12
 8001ce4:	f04f 051f 	mov.w	r5, #31
 8001ce8:	d809      	bhi.n	8001cfe <HAL_ADC_ConfigChannel+0x86>
 8001cea:	6b16      	ldr	r6, [r2, #48]	; 0x30
 8001cec:	3b23      	subs	r3, #35	; 0x23
 8001cee:	409d      	lsls	r5, r3
 8001cf0:	ea26 0505 	bic.w	r5, r6, r5
 8001cf4:	fa00 f303 	lsl.w	r3, r0, r3
 8001cf8:	432b      	orrs	r3, r5
 8001cfa:	6313      	str	r3, [r2, #48]	; 0x30
 8001cfc:	e7d8      	b.n	8001cb0 <HAL_ADC_ConfigChannel+0x38>
 8001cfe:	6ad6      	ldr	r6, [r2, #44]	; 0x2c
 8001d00:	3b41      	subs	r3, #65	; 0x41
 8001d02:	409d      	lsls	r5, r3
 8001d04:	ea26 0505 	bic.w	r5, r6, r5
 8001d08:	fa00 f303 	lsl.w	r3, r0, r3
 8001d0c:	432b      	orrs	r3, r5
 8001d0e:	62d3      	str	r3, [r2, #44]	; 0x2c
 8001d10:	e7ce      	b.n	8001cb0 <HAL_ADC_ConfigChannel+0x38>
 8001d12:	6910      	ldr	r0, [r2, #16]
 8001d14:	40a9      	lsls	r1, r5
 8001d16:	ea20 0101 	bic.w	r1, r0, r1
 8001d1a:	40ab      	lsls	r3, r5
 8001d1c:	430b      	orrs	r3, r1
 8001d1e:	6113      	str	r3, [r2, #16]
 8001d20:	e7d9      	b.n	8001cd6 <HAL_ADC_ConfigChannel+0x5e>
 8001d22:	4b11      	ldr	r3, [pc, #68]	; (8001d68 <HAL_ADC_ConfigChannel+0xf0>)
 8001d24:	429a      	cmp	r2, r3
 8001d26:	d116      	bne.n	8001d56 <HAL_ADC_ConfigChannel+0xde>
 8001d28:	6893      	ldr	r3, [r2, #8]
 8001d2a:	021b      	lsls	r3, r3, #8
 8001d2c:	d4d3      	bmi.n	8001cd6 <HAL_ADC_ConfigChannel+0x5e>
 8001d2e:	6893      	ldr	r3, [r2, #8]
 8001d30:	2810      	cmp	r0, #16
 8001d32:	f443 0300 	orr.w	r3, r3, #8388608	; 0x800000
 8001d36:	6093      	str	r3, [r2, #8]
 8001d38:	d1cd      	bne.n	8001cd6 <HAL_ADC_ConfigChannel+0x5e>
 8001d3a:	4b0c      	ldr	r3, [pc, #48]	; (8001d6c <HAL_ADC_ConfigChannel+0xf4>)
 8001d3c:	4a0c      	ldr	r2, [pc, #48]	; (8001d70 <HAL_ADC_ConfigChannel+0xf8>)
 8001d3e:	681b      	ldr	r3, [r3, #0]
 8001d40:	fbb3 f3f2 	udiv	r3, r3, r2
 8001d44:	220a      	movs	r2, #10
 8001d46:	4353      	muls	r3, r2
 8001d48:	9301      	str	r3, [sp, #4]
 8001d4a:	9b01      	ldr	r3, [sp, #4]
 8001d4c:	2b00      	cmp	r3, #0
 8001d4e:	d0c2      	beq.n	8001cd6 <HAL_ADC_ConfigChannel+0x5e>
 8001d50:	9b01      	ldr	r3, [sp, #4]
 8001d52:	3b01      	subs	r3, #1
 8001d54:	e7f8      	b.n	8001d48 <HAL_ADC_ConfigChannel+0xd0>
 8001d56:	6aa3      	ldr	r3, [r4, #40]	; 0x28
 8001d58:	2001      	movs	r0, #1
 8001d5a:	f043 0320 	orr.w	r3, r3, #32
 8001d5e:	62a3      	str	r3, [r4, #40]	; 0x28
 8001d60:	e7ba      	b.n	8001cd8 <HAL_ADC_ConfigChannel+0x60>
 8001d62:	2002      	movs	r0, #2
 8001d64:	e7bb      	b.n	8001cde <HAL_ADC_ConfigChannel+0x66>
 8001d66:	bf00      	nop
 8001d68:	40012400 	.word	0x40012400
 8001d6c:	20000004 	.word	0x20000004
 8001d70:	000f4240 	.word	0x000f4240

08001d74 <ADC_ConversionStop_Disable>:
 8001d74:	b538      	push	{r3, r4, r5, lr}
 8001d76:	6803      	ldr	r3, [r0, #0]
 8001d78:	4604      	mov	r4, r0
 8001d7a:	689a      	ldr	r2, [r3, #8]
 8001d7c:	07d1      	lsls	r1, r2, #31
 8001d7e:	d401      	bmi.n	8001d84 <ADC_ConversionStop_Disable+0x10>
 8001d80:	2000      	movs	r0, #0
 8001d82:	bd38      	pop	{r3, r4, r5, pc}
 8001d84:	689a      	ldr	r2, [r3, #8]
 8001d86:	f022 0201 	bic.w	r2, r2, #1
 8001d8a:	609a      	str	r2, [r3, #8]
 8001d8c:	f7ff ff5c 	bl	8001c48 <HAL_GetTick>
 8001d90:	4605      	mov	r5, r0
 8001d92:	6823      	ldr	r3, [r4, #0]
 8001d94:	689b      	ldr	r3, [r3, #8]
 8001d96:	07db      	lsls	r3, r3, #31
 8001d98:	d5f2      	bpl.n	8001d80 <ADC_ConversionStop_Disable+0xc>
 8001d9a:	f7ff ff55 	bl	8001c48 <HAL_GetTick>
 8001d9e:	1b40      	subs	r0, r0, r5
 8001da0:	2802      	cmp	r0, #2
 8001da2:	d9f6      	bls.n	8001d92 <ADC_ConversionStop_Disable+0x1e>
 8001da4:	6823      	ldr	r3, [r4, #0]
 8001da6:	689b      	ldr	r3, [r3, #8]
 8001da8:	07da      	lsls	r2, r3, #31
 8001daa:	d5f2      	bpl.n	8001d92 <ADC_ConversionStop_Disable+0x1e>
 8001dac:	6aa3      	ldr	r3, [r4, #40]	; 0x28
 8001dae:	2001      	movs	r0, #1
 8001db0:	f043 0310 	orr.w	r3, r3, #16
 8001db4:	62a3      	str	r3, [r4, #40]	; 0x28
 8001db6:	6ae3      	ldr	r3, [r4, #44]	; 0x2c
 8001db8:	f043 0301 	orr.w	r3, r3, #1
 8001dbc:	62e3      	str	r3, [r4, #44]	; 0x2c
 8001dbe:	e7e0      	b.n	8001d82 <ADC_ConversionStop_Disable+0xe>

08001dc0 <HAL_ADC_Init>:
 8001dc0:	b5f8      	push	{r3, r4, r5, r6, r7, lr}
 8001dc2:	4604      	mov	r4, r0
 8001dc4:	2800      	cmp	r0, #0
 8001dc6:	d06d      	beq.n	8001ea4 <HAL_ADC_Init+0xe4>
 8001dc8:	6a83      	ldr	r3, [r0, #40]	; 0x28
 8001dca:	b923      	cbnz	r3, 8001dd6 <HAL_ADC_Init+0x16>
 8001dcc:	62c3      	str	r3, [r0, #44]	; 0x2c
 8001dce:	f880 3024 	strb.w	r3, [r0, #36]	; 0x24
 8001dd2:	f7ff fd65 	bl	80018a0 <HAL_ADC_MspInit>
 8001dd6:	4620      	mov	r0, r4
 8001dd8:	f7ff ffcc 	bl	8001d74 <ADC_ConversionStop_Disable>
 8001ddc:	6aa3      	ldr	r3, [r4, #40]	; 0x28
 8001dde:	f013 0310 	ands.w	r3, r3, #16
 8001de2:	d161      	bne.n	8001ea8 <HAL_ADC_Init+0xe8>
 8001de4:	2800      	cmp	r0, #0
 8001de6:	d15f      	bne.n	8001ea8 <HAL_ADC_Init+0xe8>
 8001de8:	6aa2      	ldr	r2, [r4, #40]	; 0x28
 8001dea:	6861      	ldr	r1, [r4, #4]
 8001dec:	f422 5288 	bic.w	r2, r2, #4352	; 0x1100
 8001df0:	f022 0202 	bic.w	r2, r2, #2
 8001df4:	f042 0202 	orr.w	r2, r2, #2
 8001df8:	69e5      	ldr	r5, [r4, #28]
 8001dfa:	68a6      	ldr	r6, [r4, #8]
 8001dfc:	62a2      	str	r2, [r4, #40]	; 0x28
 8001dfe:	7b22      	ldrb	r2, [r4, #12]
 8001e00:	4329      	orrs	r1, r5
 8001e02:	f5b6 7f80 	cmp.w	r6, #256	; 0x100
 8001e06:	ea41 0142 	orr.w	r1, r1, r2, lsl #1
 8001e0a:	d036      	beq.n	8001e7a <HAL_ADC_Init+0xba>
 8001e0c:	1e77      	subs	r7, r6, #1
 8001e0e:	427d      	negs	r5, r7
 8001e10:	417d      	adcs	r5, r7
 8001e12:	022d      	lsls	r5, r5, #8
 8001e14:	7d27      	ldrb	r7, [r4, #20]
 8001e16:	2f01      	cmp	r7, #1
 8001e18:	d106      	bne.n	8001e28 <HAL_ADC_Init+0x68>
 8001e1a:	bb82      	cbnz	r2, 8001e7e <HAL_ADC_Init+0xbe>
 8001e1c:	69a2      	ldr	r2, [r4, #24]
 8001e1e:	3a01      	subs	r2, #1
 8001e20:	ea45 3242 	orr.w	r2, r5, r2, lsl #13
 8001e24:	f442 6500 	orr.w	r5, r2, #2048	; 0x800
 8001e28:	6822      	ldr	r2, [r4, #0]
 8001e2a:	f5b6 7f80 	cmp.w	r6, #256	; 0x100
 8001e2e:	6857      	ldr	r7, [r2, #4]
 8001e30:	f427 4769 	bic.w	r7, r7, #59648	; 0xe900
 8001e34:	ea45 0507 	orr.w	r5, r5, r7
 8001e38:	6055      	str	r5, [r2, #4]
 8001e3a:	6897      	ldr	r7, [r2, #8]
 8001e3c:	4d1d      	ldr	r5, [pc, #116]	; (8001eb4 <HAL_ADC_Init+0xf4>)
 8001e3e:	ea05 0507 	and.w	r5, r5, r7
 8001e42:	ea45 0501 	orr.w	r5, r5, r1
 8001e46:	6095      	str	r5, [r2, #8]
 8001e48:	d001      	beq.n	8001e4e <HAL_ADC_Init+0x8e>
 8001e4a:	2e01      	cmp	r6, #1
 8001e4c:	d102      	bne.n	8001e54 <HAL_ADC_Init+0x94>
 8001e4e:	6923      	ldr	r3, [r4, #16]
 8001e50:	3b01      	subs	r3, #1
 8001e52:	051b      	lsls	r3, r3, #20
 8001e54:	6ad5      	ldr	r5, [r2, #44]	; 0x2c
 8001e56:	f425 0570 	bic.w	r5, r5, #15728640	; 0xf00000
 8001e5a:	432b      	orrs	r3, r5
 8001e5c:	62d3      	str	r3, [r2, #44]	; 0x2c
 8001e5e:	6892      	ldr	r2, [r2, #8]
 8001e60:	4b15      	ldr	r3, [pc, #84]	; (8001eb8 <HAL_ADC_Init+0xf8>)
 8001e62:	4013      	ands	r3, r2
 8001e64:	4299      	cmp	r1, r3
 8001e66:	d113      	bne.n	8001e90 <HAL_ADC_Init+0xd0>
 8001e68:	2300      	movs	r3, #0
 8001e6a:	62e3      	str	r3, [r4, #44]	; 0x2c
 8001e6c:	6aa3      	ldr	r3, [r4, #40]	; 0x28
 8001e6e:	f023 0303 	bic.w	r3, r3, #3
 8001e72:	f043 0301 	orr.w	r3, r3, #1
 8001e76:	62a3      	str	r3, [r4, #40]	; 0x28
 8001e78:	bdf8      	pop	{r3, r4, r5, r6, r7, pc}
 8001e7a:	4635      	mov	r5, r6
 8001e7c:	e7ca      	b.n	8001e14 <HAL_ADC_Init+0x54>
 8001e7e:	6aa2      	ldr	r2, [r4, #40]	; 0x28
 8001e80:	f042 0220 	orr.w	r2, r2, #32
 8001e84:	62a2      	str	r2, [r4, #40]	; 0x28
 8001e86:	6ae2      	ldr	r2, [r4, #44]	; 0x2c
 8001e88:	f042 0201 	orr.w	r2, r2, #1
 8001e8c:	62e2      	str	r2, [r4, #44]	; 0x2c
 8001e8e:	e7cb      	b.n	8001e28 <HAL_ADC_Init+0x68>
 8001e90:	6aa3      	ldr	r3, [r4, #40]	; 0x28
 8001e92:	f023 0312 	bic.w	r3, r3, #18
 8001e96:	f043 0310 	orr.w	r3, r3, #16
 8001e9a:	62a3      	str	r3, [r4, #40]	; 0x28
 8001e9c:	6ae3      	ldr	r3, [r4, #44]	; 0x2c
 8001e9e:	f043 0301 	orr.w	r3, r3, #1
 8001ea2:	62e3      	str	r3, [r4, #44]	; 0x2c
 8001ea4:	2001      	movs	r0, #1
 8001ea6:	e7e7      	b.n	8001e78 <HAL_ADC_Init+0xb8>
 8001ea8:	6aa3      	ldr	r3, [r4, #40]	; 0x28
 8001eaa:	f043 0310 	orr.w	r3, r3, #16
 8001eae:	62a3      	str	r3, [r4, #40]	; 0x28
 8001eb0:	e7f8      	b.n	8001ea4 <HAL_ADC_Init+0xe4>
 8001eb2:	bf00      	nop
 8001eb4:	ffe1f7fd 	.word	0xffe1f7fd
 8001eb8:	ff1f0efe 	.word	0xff1f0efe

08001ebc <HAL_CAN_Init>:
 8001ebc:	b538      	push	{r3, r4, r5, lr}
 8001ebe:	4604      	mov	r4, r0
 8001ec0:	2800      	cmp	r0, #0
 8001ec2:	d06e      	beq.n	8001fa2 <HAL_CAN_Init+0xe6>
 8001ec4:	f890 3020 	ldrb.w	r3, [r0, #32]
 8001ec8:	b90b      	cbnz	r3, 8001ece <HAL_CAN_Init+0x12>
 8001eca:	f7ff fd17 	bl	80018fc <HAL_CAN_MspInit>
 8001ece:	6822      	ldr	r2, [r4, #0]
 8001ed0:	6813      	ldr	r3, [r2, #0]
 8001ed2:	f043 0301 	orr.w	r3, r3, #1
 8001ed6:	6013      	str	r3, [r2, #0]
 8001ed8:	f7ff feb6 	bl	8001c48 <HAL_GetTick>
 8001edc:	4605      	mov	r5, r0
 8001ede:	6823      	ldr	r3, [r4, #0]
 8001ee0:	685a      	ldr	r2, [r3, #4]
 8001ee2:	07d1      	lsls	r1, r2, #31
 8001ee4:	d551      	bpl.n	8001f8a <HAL_CAN_Init+0xce>
 8001ee6:	681a      	ldr	r2, [r3, #0]
 8001ee8:	f022 0202 	bic.w	r2, r2, #2
 8001eec:	601a      	str	r2, [r3, #0]
 8001eee:	f7ff feab 	bl	8001c48 <HAL_GetTick>
 8001ef2:	4605      	mov	r5, r0
 8001ef4:	6823      	ldr	r3, [r4, #0]
 8001ef6:	685a      	ldr	r2, [r3, #4]
 8001ef8:	0792      	lsls	r2, r2, #30
 8001efa:	d454      	bmi.n	8001fa6 <HAL_CAN_Init+0xea>
 8001efc:	7e22      	ldrb	r2, [r4, #24]
 8001efe:	2000      	movs	r0, #0
 8001f00:	2a01      	cmp	r2, #1
 8001f02:	681a      	ldr	r2, [r3, #0]
 8001f04:	bf0c      	ite	eq
 8001f06:	f042 0280 	orreq.w	r2, r2, #128	; 0x80
 8001f0a:	f022 0280 	bicne.w	r2, r2, #128	; 0x80
 8001f0e:	601a      	str	r2, [r3, #0]
 8001f10:	7e62      	ldrb	r2, [r4, #25]
 8001f12:	2a01      	cmp	r2, #1
 8001f14:	681a      	ldr	r2, [r3, #0]
 8001f16:	bf0c      	ite	eq
 8001f18:	f042 0240 	orreq.w	r2, r2, #64	; 0x40
 8001f1c:	f022 0240 	bicne.w	r2, r2, #64	; 0x40
 8001f20:	601a      	str	r2, [r3, #0]
 8001f22:	7ea2      	ldrb	r2, [r4, #26]
 8001f24:	2a01      	cmp	r2, #1
 8001f26:	681a      	ldr	r2, [r3, #0]
 8001f28:	bf0c      	ite	eq
 8001f2a:	f042 0220 	orreq.w	r2, r2, #32
 8001f2e:	f022 0220 	bicne.w	r2, r2, #32
 8001f32:	601a      	str	r2, [r3, #0]
 8001f34:	7ee2      	ldrb	r2, [r4, #27]
 8001f36:	2a01      	cmp	r2, #1
 8001f38:	681a      	ldr	r2, [r3, #0]
 8001f3a:	bf0c      	ite	eq
 8001f3c:	f022 0210 	biceq.w	r2, r2, #16
 8001f40:	f042 0210 	orrne.w	r2, r2, #16
 8001f44:	601a      	str	r2, [r3, #0]
 8001f46:	7f22      	ldrb	r2, [r4, #28]
 8001f48:	2a01      	cmp	r2, #1
 8001f4a:	681a      	ldr	r2, [r3, #0]
 8001f4c:	bf0c      	ite	eq
 8001f4e:	f042 0208 	orreq.w	r2, r2, #8
 8001f52:	f022 0208 	bicne.w	r2, r2, #8
 8001f56:	601a      	str	r2, [r3, #0]
 8001f58:	7f62      	ldrb	r2, [r4, #29]
 8001f5a:	2a01      	cmp	r2, #1
 8001f5c:	681a      	ldr	r2, [r3, #0]
 8001f5e:	bf0c      	ite	eq
 8001f60:	f042 0204 	orreq.w	r2, r2, #4
 8001f64:	f022 0204 	bicne.w	r2, r2, #4
 8001f68:	601a      	str	r2, [r3, #0]
 8001f6a:	e9d4 2102 	ldrd	r2, r1, [r4, #8]
 8001f6e:	430a      	orrs	r2, r1
 8001f70:	6921      	ldr	r1, [r4, #16]
 8001f72:	430a      	orrs	r2, r1
 8001f74:	6961      	ldr	r1, [r4, #20]
 8001f76:	430a      	orrs	r2, r1
 8001f78:	6861      	ldr	r1, [r4, #4]
 8001f7a:	3901      	subs	r1, #1
 8001f7c:	430a      	orrs	r2, r1
 8001f7e:	61da      	str	r2, [r3, #28]
 8001f80:	2301      	movs	r3, #1
 8001f82:	6260      	str	r0, [r4, #36]	; 0x24
 8001f84:	f884 3020 	strb.w	r3, [r4, #32]
 8001f88:	bd38      	pop	{r3, r4, r5, pc}
 8001f8a:	f7ff fe5d 	bl	8001c48 <HAL_GetTick>
 8001f8e:	1b40      	subs	r0, r0, r5
 8001f90:	280a      	cmp	r0, #10
 8001f92:	d9a4      	bls.n	8001ede <HAL_CAN_Init+0x22>
 8001f94:	6a63      	ldr	r3, [r4, #36]	; 0x24
 8001f96:	f443 3300 	orr.w	r3, r3, #131072	; 0x20000
 8001f9a:	6263      	str	r3, [r4, #36]	; 0x24
 8001f9c:	2305      	movs	r3, #5
 8001f9e:	f884 3020 	strb.w	r3, [r4, #32]
 8001fa2:	2001      	movs	r0, #1
 8001fa4:	e7f0      	b.n	8001f88 <HAL_CAN_Init+0xcc>
 8001fa6:	f7ff fe4f 	bl	8001c48 <HAL_GetTick>
 8001faa:	1b40      	subs	r0, r0, r5
 8001fac:	280a      	cmp	r0, #10
 8001fae:	d9a1      	bls.n	8001ef4 <HAL_CAN_Init+0x38>
 8001fb0:	e7f0      	b.n	8001f94 <HAL_CAN_Init+0xd8>

08001fb2 <HAL_CAN_ConfigFilter>:
 8001fb2:	b570      	push	{r4, r5, r6, lr}
 8001fb4:	f890 2020 	ldrb.w	r2, [r0, #32]
 8001fb8:	6803      	ldr	r3, [r0, #0]
 8001fba:	3a01      	subs	r2, #1
 8001fbc:	2a01      	cmp	r2, #1
 8001fbe:	d862      	bhi.n	8002086 <HAL_CAN_ConfigFilter+0xd4>
 8001fc0:	2001      	movs	r0, #1
 8001fc2:	f8d3 2200 	ldr.w	r2, [r3, #512]	; 0x200
 8001fc6:	f042 0201 	orr.w	r2, r2, #1
 8001fca:	f8c3 2200 	str.w	r2, [r3, #512]	; 0x200
 8001fce:	694a      	ldr	r2, [r1, #20]
 8001fd0:	f8d3 521c 	ldr.w	r5, [r3, #540]	; 0x21c
 8001fd4:	f002 041f 	and.w	r4, r2, #31
 8001fd8:	40a0      	lsls	r0, r4
 8001fda:	ea25 0500 	bic.w	r5, r5, r0
 8001fde:	f8c3 521c 	str.w	r5, [r3, #540]	; 0x21c
 8001fe2:	69cd      	ldr	r5, [r1, #28]
 8001fe4:	43c4      	mvns	r4, r0
 8001fe6:	bb95      	cbnz	r5, 800204e <HAL_CAN_ConfigFilter+0x9c>
 8001fe8:	f8d3 520c 	ldr.w	r5, [r3, #524]	; 0x20c
 8001fec:	68ce      	ldr	r6, [r1, #12]
 8001fee:	4025      	ands	r5, r4
 8001ff0:	f8c3 520c 	str.w	r5, [r3, #524]	; 0x20c
 8001ff4:	888d      	ldrh	r5, [r1, #4]
 8001ff6:	eb03 02c2 	add.w	r2, r3, r2, lsl #3
 8001ffa:	ea45 4506 	orr.w	r5, r5, r6, lsl #16
 8001ffe:	f8c2 5240 	str.w	r5, [r2, #576]	; 0x240
 8002002:	688e      	ldr	r6, [r1, #8]
 8002004:	880d      	ldrh	r5, [r1, #0]
 8002006:	ea45 4506 	orr.w	r5, r5, r6, lsl #16
 800200a:	f8c2 5244 	str.w	r5, [r2, #580]	; 0x244
 800200e:	698a      	ldr	r2, [r1, #24]
 8002010:	bb7a      	cbnz	r2, 8002072 <HAL_CAN_ConfigFilter+0xc0>
 8002012:	f8d3 2204 	ldr.w	r2, [r3, #516]	; 0x204
 8002016:	4022      	ands	r2, r4
 8002018:	f8c3 2204 	str.w	r2, [r3, #516]	; 0x204
 800201c:	690a      	ldr	r2, [r1, #16]
 800201e:	bb62      	cbnz	r2, 800207a <HAL_CAN_ConfigFilter+0xc8>
 8002020:	f8d3 2214 	ldr.w	r2, [r3, #532]	; 0x214
 8002024:	4014      	ands	r4, r2
 8002026:	f8c3 4214 	str.w	r4, [r3, #532]	; 0x214
 800202a:	6a0a      	ldr	r2, [r1, #32]
 800202c:	2a01      	cmp	r2, #1
 800202e:	bf04      	itt	eq
 8002030:	f8d3 221c 	ldreq.w	r2, [r3, #540]	; 0x21c
 8002034:	4302      	orreq	r2, r0
 8002036:	f04f 0000 	mov.w	r0, #0
 800203a:	bf08      	it	eq
 800203c:	f8c3 221c 	streq.w	r2, [r3, #540]	; 0x21c
 8002040:	f8d3 2200 	ldr.w	r2, [r3, #512]	; 0x200
 8002044:	f022 0201 	bic.w	r2, r2, #1
 8002048:	f8c3 2200 	str.w	r2, [r3, #512]	; 0x200
 800204c:	bd70      	pop	{r4, r5, r6, pc}
 800204e:	2d01      	cmp	r5, #1
 8002050:	d1dd      	bne.n	800200e <HAL_CAN_ConfigFilter+0x5c>
 8002052:	f8d3 520c 	ldr.w	r5, [r3, #524]	; 0x20c
 8002056:	680e      	ldr	r6, [r1, #0]
 8002058:	4305      	orrs	r5, r0
 800205a:	f8c3 520c 	str.w	r5, [r3, #524]	; 0x20c
 800205e:	888d      	ldrh	r5, [r1, #4]
 8002060:	eb03 02c2 	add.w	r2, r3, r2, lsl #3
 8002064:	ea45 4506 	orr.w	r5, r5, r6, lsl #16
 8002068:	f8c2 5240 	str.w	r5, [r2, #576]	; 0x240
 800206c:	688e      	ldr	r6, [r1, #8]
 800206e:	898d      	ldrh	r5, [r1, #12]
 8002070:	e7c9      	b.n	8002006 <HAL_CAN_ConfigFilter+0x54>
 8002072:	f8d3 2204 	ldr.w	r2, [r3, #516]	; 0x204
 8002076:	4302      	orrs	r2, r0
 8002078:	e7ce      	b.n	8002018 <HAL_CAN_ConfigFilter+0x66>
 800207a:	f8d3 2214 	ldr.w	r2, [r3, #532]	; 0x214
 800207e:	4302      	orrs	r2, r0
 8002080:	f8c3 2214 	str.w	r2, [r3, #532]	; 0x214
 8002084:	e7d1      	b.n	800202a <HAL_CAN_ConfigFilter+0x78>
 8002086:	6a43      	ldr	r3, [r0, #36]	; 0x24
 8002088:	f443 2380 	orr.w	r3, r3, #262144	; 0x40000
 800208c:	6243      	str	r3, [r0, #36]	; 0x24
 800208e:	2001      	movs	r0, #1
 8002090:	e7dc      	b.n	800204c <HAL_CAN_ConfigFilter+0x9a>

08002092 <HAL_CAN_GetRxMessage>:
 8002092:	b5f0      	push	{r4, r5, r6, r7, lr}
 8002094:	4604      	mov	r4, r0
 8002096:	4608      	mov	r0, r1
 8002098:	f894 1020 	ldrb.w	r1, [r4, #32]
 800209c:	3901      	subs	r1, #1
 800209e:	2901      	cmp	r1, #1
 80020a0:	d871      	bhi.n	8002186 <HAL_CAN_GetRxMessage+0xf4>
 80020a2:	6826      	ldr	r6, [r4, #0]
 80020a4:	b940      	cbnz	r0, 80020b8 <HAL_CAN_GetRxMessage+0x26>
 80020a6:	68f1      	ldr	r1, [r6, #12]
 80020a8:	0789      	lsls	r1, r1, #30
 80020aa:	d107      	bne.n	80020bc <HAL_CAN_GetRxMessage+0x2a>
 80020ac:	6a63      	ldr	r3, [r4, #36]	; 0x24
 80020ae:	f443 1300 	orr.w	r3, r3, #2097152	; 0x200000
 80020b2:	2001      	movs	r0, #1
 80020b4:	6263      	str	r3, [r4, #36]	; 0x24
 80020b6:	e05a      	b.n	800216e <HAL_CAN_GetRxMessage+0xdc>
 80020b8:	6931      	ldr	r1, [r6, #16]
 80020ba:	e7f5      	b.n	80020a8 <HAL_CAN_GetRxMessage+0x16>
 80020bc:	eb06 1500 	add.w	r5, r6, r0, lsl #4
 80020c0:	f8d5 71b0 	ldr.w	r7, [r5, #432]	; 0x1b0
 80020c4:	0101      	lsls	r1, r0, #4
 80020c6:	f007 0704 	and.w	r7, r7, #4
 80020ca:	6097      	str	r7, [r2, #8]
 80020cc:	2f00      	cmp	r7, #0
 80020ce:	d14f      	bne.n	8002170 <HAL_CAN_GetRxMessage+0xde>
 80020d0:	f8d5 71b0 	ldr.w	r7, [r5, #432]	; 0x1b0
 80020d4:	0d7f      	lsrs	r7, r7, #21
 80020d6:	6017      	str	r7, [r2, #0]
 80020d8:	f8d5 71b0 	ldr.w	r7, [r5, #432]	; 0x1b0
 80020dc:	440e      	add	r6, r1
 80020de:	f007 0702 	and.w	r7, r7, #2
 80020e2:	60d7      	str	r7, [r2, #12]
 80020e4:	f8d5 71b4 	ldr.w	r7, [r5, #436]	; 0x1b4
 80020e8:	073f      	lsls	r7, r7, #28
 80020ea:	bf4e      	itee	mi
 80020ec:	2708      	movmi	r7, #8
 80020ee:	f8d5 71b4 	ldrpl.w	r7, [r5, #436]	; 0x1b4
 80020f2:	f007 070f 	andpl.w	r7, r7, #15
 80020f6:	6117      	str	r7, [r2, #16]
 80020f8:	f8d5 71b4 	ldr.w	r7, [r5, #436]	; 0x1b4
 80020fc:	f8d5 51b4 	ldr.w	r5, [r5, #436]	; 0x1b4
 8002100:	f3c7 2707 	ubfx	r7, r7, #8, #8
 8002104:	0c2d      	lsrs	r5, r5, #16
 8002106:	6197      	str	r7, [r2, #24]
 8002108:	6155      	str	r5, [r2, #20]
 800210a:	f8d6 21b8 	ldr.w	r2, [r6, #440]	; 0x1b8
 800210e:	701a      	strb	r2, [r3, #0]
 8002110:	6822      	ldr	r2, [r4, #0]
 8002112:	440a      	add	r2, r1
 8002114:	f8d2 21b8 	ldr.w	r2, [r2, #440]	; 0x1b8
 8002118:	0a12      	lsrs	r2, r2, #8
 800211a:	705a      	strb	r2, [r3, #1]
 800211c:	6822      	ldr	r2, [r4, #0]
 800211e:	440a      	add	r2, r1
 8002120:	f8d2 21b8 	ldr.w	r2, [r2, #440]	; 0x1b8
 8002124:	0c12      	lsrs	r2, r2, #16
 8002126:	709a      	strb	r2, [r3, #2]
 8002128:	6822      	ldr	r2, [r4, #0]
 800212a:	440a      	add	r2, r1
 800212c:	f8d2 21b8 	ldr.w	r2, [r2, #440]	; 0x1b8
 8002130:	0e12      	lsrs	r2, r2, #24
 8002132:	70da      	strb	r2, [r3, #3]
 8002134:	6822      	ldr	r2, [r4, #0]
 8002136:	440a      	add	r2, r1
 8002138:	f8d2 21bc 	ldr.w	r2, [r2, #444]	; 0x1bc
 800213c:	711a      	strb	r2, [r3, #4]
 800213e:	6822      	ldr	r2, [r4, #0]
 8002140:	440a      	add	r2, r1
 8002142:	f8d2 21bc 	ldr.w	r2, [r2, #444]	; 0x1bc
 8002146:	0a12      	lsrs	r2, r2, #8
 8002148:	715a      	strb	r2, [r3, #5]
 800214a:	6822      	ldr	r2, [r4, #0]
 800214c:	440a      	add	r2, r1
 800214e:	f8d2 21bc 	ldr.w	r2, [r2, #444]	; 0x1bc
 8002152:	0c12      	lsrs	r2, r2, #16
 8002154:	719a      	strb	r2, [r3, #6]
 8002156:	6822      	ldr	r2, [r4, #0]
 8002158:	440a      	add	r2, r1
 800215a:	f8d2 21bc 	ldr.w	r2, [r2, #444]	; 0x1bc
 800215e:	0e12      	lsrs	r2, r2, #24
 8002160:	71da      	strb	r2, [r3, #7]
 8002162:	6823      	ldr	r3, [r4, #0]
 8002164:	b948      	cbnz	r0, 800217a <HAL_CAN_GetRxMessage+0xe8>
 8002166:	68da      	ldr	r2, [r3, #12]
 8002168:	f042 0220 	orr.w	r2, r2, #32
 800216c:	60da      	str	r2, [r3, #12]
 800216e:	bdf0      	pop	{r4, r5, r6, r7, pc}
 8002170:	f8d5 71b0 	ldr.w	r7, [r5, #432]	; 0x1b0
 8002174:	08ff      	lsrs	r7, r7, #3
 8002176:	6057      	str	r7, [r2, #4]
 8002178:	e7ae      	b.n	80020d8 <HAL_CAN_GetRxMessage+0x46>
 800217a:	691a      	ldr	r2, [r3, #16]
 800217c:	2000      	movs	r0, #0
 800217e:	f042 0220 	orr.w	r2, r2, #32
 8002182:	611a      	str	r2, [r3, #16]
 8002184:	e7f3      	b.n	800216e <HAL_CAN_GetRxMessage+0xdc>
 8002186:	6a63      	ldr	r3, [r4, #36]	; 0x24
 8002188:	f443 2380 	orr.w	r3, r3, #262144	; 0x40000
 800218c:	e791      	b.n	80020b2 <HAL_CAN_GetRxMessage+0x20>

0800218e <HAL_CAN_TxMailbox0CompleteCallback>:
 800218e:	4770      	bx	lr

08002190 <HAL_CAN_TxMailbox1CompleteCallback>:
 8002190:	4770      	bx	lr

08002192 <HAL_CAN_TxMailbox2CompleteCallback>:
 8002192:	4770      	bx	lr

08002194 <HAL_CAN_TxMailbox0AbortCallback>:
 8002194:	4770      	bx	lr

08002196 <HAL_CAN_TxMailbox1AbortCallback>:
 8002196:	4770      	bx	lr

08002198 <HAL_CAN_TxMailbox2AbortCallback>:
 8002198:	4770      	bx	lr

0800219a <HAL_CAN_RxFifo0MsgPendingCallback>:
 800219a:	4770      	bx	lr

0800219c <HAL_CAN_RxFifo0FullCallback>:
 800219c:	4770      	bx	lr

0800219e <HAL_CAN_RxFifo1FullCallback>:
 800219e:	4770      	bx	lr

080021a0 <HAL_CAN_SleepCallback>:
 80021a0:	4770      	bx	lr

080021a2 <HAL_CAN_WakeUpFromRxMsgCallback>:
 80021a2:	4770      	bx	lr

080021a4 <HAL_CAN_ErrorCallback>:
 80021a4:	4770      	bx	lr

080021a6 <HAL_CAN_IRQHandler>:
 80021a6:	e92d 4ff8 	stmdb	sp!, {r3, r4, r5, r6, r7, r8, r9, sl, fp, lr}
 80021aa:	6803      	ldr	r3, [r0, #0]
 80021ac:	4605      	mov	r5, r0
 80021ae:	695e      	ldr	r6, [r3, #20]
 80021b0:	f8d3 9004 	ldr.w	r9, [r3, #4]
 80021b4:	f016 0401 	ands.w	r4, r6, #1
 80021b8:	689f      	ldr	r7, [r3, #8]
 80021ba:	f8d3 b00c 	ldr.w	fp, [r3, #12]
 80021be:	f8d3 a010 	ldr.w	sl, [r3, #16]
 80021c2:	f8d3 8018 	ldr.w	r8, [r3, #24]
 80021c6:	d022      	beq.n	800220e <HAL_CAN_IRQHandler+0x68>
 80021c8:	f017 0401 	ands.w	r4, r7, #1
 80021cc:	d007      	beq.n	80021de <HAL_CAN_IRQHandler+0x38>
 80021ce:	2201      	movs	r2, #1
 80021d0:	07b9      	lsls	r1, r7, #30
 80021d2:	609a      	str	r2, [r3, #8]
 80021d4:	f140 80a5 	bpl.w	8002322 <HAL_CAN_IRQHandler+0x17c>
 80021d8:	f7ff ffd9 	bl	800218e <HAL_CAN_TxMailbox0CompleteCallback>
 80021dc:	2400      	movs	r4, #0
 80021de:	05fb      	lsls	r3, r7, #23
 80021e0:	d509      	bpl.n	80021f6 <HAL_CAN_IRQHandler+0x50>
 80021e2:	f44f 7280 	mov.w	r2, #256	; 0x100
 80021e6:	682b      	ldr	r3, [r5, #0]
 80021e8:	05b8      	lsls	r0, r7, #22
 80021ea:	609a      	str	r2, [r3, #8]
 80021ec:	f140 80a7 	bpl.w	800233e <HAL_CAN_IRQHandler+0x198>
 80021f0:	4628      	mov	r0, r5
 80021f2:	f7ff ffcd 	bl	8002190 <HAL_CAN_TxMailbox1CompleteCallback>
 80021f6:	03fb      	lsls	r3, r7, #15
 80021f8:	d509      	bpl.n	800220e <HAL_CAN_IRQHandler+0x68>
 80021fa:	f44f 3280 	mov.w	r2, #65536	; 0x10000
 80021fe:	682b      	ldr	r3, [r5, #0]
 8002200:	03b8      	lsls	r0, r7, #14
 8002202:	609a      	str	r2, [r3, #8]
 8002204:	f140 80a9 	bpl.w	800235a <HAL_CAN_IRQHandler+0x1b4>
 8002208:	4628      	mov	r0, r5
 800220a:	f7ff ffc2 	bl	8002192 <HAL_CAN_TxMailbox2CompleteCallback>
 800220e:	0733      	lsls	r3, r6, #28
 8002210:	d507      	bpl.n	8002222 <HAL_CAN_IRQHandler+0x7c>
 8002212:	f01b 0f10 	tst.w	fp, #16
 8002216:	bf1f      	itttt	ne
 8002218:	2210      	movne	r2, #16
 800221a:	682b      	ldrne	r3, [r5, #0]
 800221c:	f444 7400 	orrne.w	r4, r4, #512	; 0x200
 8002220:	60da      	strne	r2, [r3, #12]
 8002222:	0777      	lsls	r7, r6, #29
 8002224:	d508      	bpl.n	8002238 <HAL_CAN_IRQHandler+0x92>
 8002226:	f01b 0f08 	tst.w	fp, #8
 800222a:	d005      	beq.n	8002238 <HAL_CAN_IRQHandler+0x92>
 800222c:	2208      	movs	r2, #8
 800222e:	682b      	ldr	r3, [r5, #0]
 8002230:	4628      	mov	r0, r5
 8002232:	60da      	str	r2, [r3, #12]
 8002234:	f7ff ffb2 	bl	800219c <HAL_CAN_RxFifo0FullCallback>
 8002238:	07b0      	lsls	r0, r6, #30
 800223a:	d506      	bpl.n	800224a <HAL_CAN_IRQHandler+0xa4>
 800223c:	682b      	ldr	r3, [r5, #0]
 800223e:	68db      	ldr	r3, [r3, #12]
 8002240:	0799      	lsls	r1, r3, #30
 8002242:	d002      	beq.n	800224a <HAL_CAN_IRQHandler+0xa4>
 8002244:	4628      	mov	r0, r5
 8002246:	f7ff ffa8 	bl	800219a <HAL_CAN_RxFifo0MsgPendingCallback>
 800224a:	0672      	lsls	r2, r6, #25
 800224c:	d507      	bpl.n	800225e <HAL_CAN_IRQHandler+0xb8>
 800224e:	f01a 0f10 	tst.w	sl, #16
 8002252:	bf1f      	itttt	ne
 8002254:	2210      	movne	r2, #16
 8002256:	682b      	ldrne	r3, [r5, #0]
 8002258:	f444 6480 	orrne.w	r4, r4, #1024	; 0x400
 800225c:	611a      	strne	r2, [r3, #16]
 800225e:	06b3      	lsls	r3, r6, #26
 8002260:	d508      	bpl.n	8002274 <HAL_CAN_IRQHandler+0xce>
 8002262:	f01a 0f08 	tst.w	sl, #8
 8002266:	d005      	beq.n	8002274 <HAL_CAN_IRQHandler+0xce>
 8002268:	2208      	movs	r2, #8
 800226a:	682b      	ldr	r3, [r5, #0]
 800226c:	4628      	mov	r0, r5
 800226e:	611a      	str	r2, [r3, #16]
 8002270:	f7ff ff95 	bl	800219e <HAL_CAN_RxFifo1FullCallback>
 8002274:	06f7      	lsls	r7, r6, #27
 8002276:	d506      	bpl.n	8002286 <HAL_CAN_IRQHandler+0xe0>
 8002278:	682b      	ldr	r3, [r5, #0]
 800227a:	691b      	ldr	r3, [r3, #16]
 800227c:	0798      	lsls	r0, r3, #30
 800227e:	d002      	beq.n	8002286 <HAL_CAN_IRQHandler+0xe0>
 8002280:	4628      	mov	r0, r5
 8002282:	f7ff f91f 	bl	80014c4 <HAL_CAN_RxFifo1MsgPendingCallback>
 8002286:	03b1      	lsls	r1, r6, #14
 8002288:	d508      	bpl.n	800229c <HAL_CAN_IRQHandler+0xf6>
 800228a:	f019 0f10 	tst.w	r9, #16
 800228e:	d005      	beq.n	800229c <HAL_CAN_IRQHandler+0xf6>
 8002290:	2210      	movs	r2, #16
 8002292:	682b      	ldr	r3, [r5, #0]
 8002294:	4628      	mov	r0, r5
 8002296:	605a      	str	r2, [r3, #4]
 8002298:	f7ff ff82 	bl	80021a0 <HAL_CAN_SleepCallback>
 800229c:	03f2      	lsls	r2, r6, #15
 800229e:	d508      	bpl.n	80022b2 <HAL_CAN_IRQHandler+0x10c>
 80022a0:	f019 0f08 	tst.w	r9, #8
 80022a4:	d005      	beq.n	80022b2 <HAL_CAN_IRQHandler+0x10c>
 80022a6:	2208      	movs	r2, #8
 80022a8:	682b      	ldr	r3, [r5, #0]
 80022aa:	4628      	mov	r0, r5
 80022ac:	605a      	str	r2, [r3, #4]
 80022ae:	f7ff ff78 	bl	80021a2 <HAL_CAN_WakeUpFromRxMsgCallback>
 80022b2:	0433      	lsls	r3, r6, #16
 80022b4:	d52c      	bpl.n	8002310 <HAL_CAN_IRQHandler+0x16a>
 80022b6:	f019 0f04 	tst.w	r9, #4
 80022ba:	682a      	ldr	r2, [r5, #0]
 80022bc:	d026      	beq.n	800230c <HAL_CAN_IRQHandler+0x166>
 80022be:	05f7      	lsls	r7, r6, #23
 80022c0:	d504      	bpl.n	80022cc <HAL_CAN_IRQHandler+0x126>
 80022c2:	f018 0f01 	tst.w	r8, #1
 80022c6:	bf18      	it	ne
 80022c8:	f044 0401 	orrne.w	r4, r4, #1
 80022cc:	05b0      	lsls	r0, r6, #22
 80022ce:	d504      	bpl.n	80022da <HAL_CAN_IRQHandler+0x134>
 80022d0:	f018 0f02 	tst.w	r8, #2
 80022d4:	bf18      	it	ne
 80022d6:	f044 0402 	orrne.w	r4, r4, #2
 80022da:	0571      	lsls	r1, r6, #21
 80022dc:	d504      	bpl.n	80022e8 <HAL_CAN_IRQHandler+0x142>
 80022de:	f018 0f04 	tst.w	r8, #4
 80022e2:	bf18      	it	ne
 80022e4:	f044 0404 	orrne.w	r4, r4, #4
 80022e8:	0533      	lsls	r3, r6, #20
 80022ea:	d50f      	bpl.n	800230c <HAL_CAN_IRQHandler+0x166>
 80022ec:	f018 0370 	ands.w	r3, r8, #112	; 0x70
 80022f0:	d00c      	beq.n	800230c <HAL_CAN_IRQHandler+0x166>
 80022f2:	2b40      	cmp	r3, #64	; 0x40
 80022f4:	d04f      	beq.n	8002396 <HAL_CAN_IRQHandler+0x1f0>
 80022f6:	d83e      	bhi.n	8002376 <HAL_CAN_IRQHandler+0x1d0>
 80022f8:	2b20      	cmp	r3, #32
 80022fa:	d046      	beq.n	800238a <HAL_CAN_IRQHandler+0x1e4>
 80022fc:	2b30      	cmp	r3, #48	; 0x30
 80022fe:	d047      	beq.n	8002390 <HAL_CAN_IRQHandler+0x1ea>
 8002300:	2b10      	cmp	r3, #16
 8002302:	d03f      	beq.n	8002384 <HAL_CAN_IRQHandler+0x1de>
 8002304:	6993      	ldr	r3, [r2, #24]
 8002306:	f023 0370 	bic.w	r3, r3, #112	; 0x70
 800230a:	6193      	str	r3, [r2, #24]
 800230c:	2304      	movs	r3, #4
 800230e:	6053      	str	r3, [r2, #4]
 8002310:	b12c      	cbz	r4, 800231e <HAL_CAN_IRQHandler+0x178>
 8002312:	6a6b      	ldr	r3, [r5, #36]	; 0x24
 8002314:	4628      	mov	r0, r5
 8002316:	4323      	orrs	r3, r4
 8002318:	626b      	str	r3, [r5, #36]	; 0x24
 800231a:	f7ff ff43 	bl	80021a4 <HAL_CAN_ErrorCallback>
 800231e:	e8bd 8ff8 	ldmia.w	sp!, {r3, r4, r5, r6, r7, r8, r9, sl, fp, pc}
 8002322:	077a      	lsls	r2, r7, #29
 8002324:	d405      	bmi.n	8002332 <HAL_CAN_IRQHandler+0x18c>
 8002326:	f017 0408 	ands.w	r4, r7, #8
 800232a:	d105      	bne.n	8002338 <HAL_CAN_IRQHandler+0x192>
 800232c:	f7ff ff32 	bl	8002194 <HAL_CAN_TxMailbox0AbortCallback>
 8002330:	e755      	b.n	80021de <HAL_CAN_IRQHandler+0x38>
 8002332:	f44f 6400 	mov.w	r4, #2048	; 0x800
 8002336:	e752      	b.n	80021de <HAL_CAN_IRQHandler+0x38>
 8002338:	f44f 5480 	mov.w	r4, #4096	; 0x1000
 800233c:	e74f      	b.n	80021de <HAL_CAN_IRQHandler+0x38>
 800233e:	0579      	lsls	r1, r7, #21
 8002340:	d502      	bpl.n	8002348 <HAL_CAN_IRQHandler+0x1a2>
 8002342:	f444 5400 	orr.w	r4, r4, #8192	; 0x2000
 8002346:	e756      	b.n	80021f6 <HAL_CAN_IRQHandler+0x50>
 8002348:	053a      	lsls	r2, r7, #20
 800234a:	d502      	bpl.n	8002352 <HAL_CAN_IRQHandler+0x1ac>
 800234c:	f444 4480 	orr.w	r4, r4, #16384	; 0x4000
 8002350:	e751      	b.n	80021f6 <HAL_CAN_IRQHandler+0x50>
 8002352:	4628      	mov	r0, r5
 8002354:	f7ff ff1f 	bl	8002196 <HAL_CAN_TxMailbox1AbortCallback>
 8002358:	e74d      	b.n	80021f6 <HAL_CAN_IRQHandler+0x50>
 800235a:	0379      	lsls	r1, r7, #13
 800235c:	d502      	bpl.n	8002364 <HAL_CAN_IRQHandler+0x1be>
 800235e:	f444 4400 	orr.w	r4, r4, #32768	; 0x8000
 8002362:	e754      	b.n	800220e <HAL_CAN_IRQHandler+0x68>
 8002364:	033a      	lsls	r2, r7, #12
 8002366:	d502      	bpl.n	800236e <HAL_CAN_IRQHandler+0x1c8>
 8002368:	f444 3480 	orr.w	r4, r4, #65536	; 0x10000
 800236c:	e74f      	b.n	800220e <HAL_CAN_IRQHandler+0x68>
 800236e:	4628      	mov	r0, r5
 8002370:	f7ff ff12 	bl	8002198 <HAL_CAN_TxMailbox2AbortCallback>
 8002374:	e74b      	b.n	800220e <HAL_CAN_IRQHandler+0x68>
 8002376:	2b50      	cmp	r3, #80	; 0x50
 8002378:	d010      	beq.n	800239c <HAL_CAN_IRQHandler+0x1f6>
 800237a:	2b60      	cmp	r3, #96	; 0x60
 800237c:	d1c2      	bne.n	8002304 <HAL_CAN_IRQHandler+0x15e>
 800237e:	f444 7480 	orr.w	r4, r4, #256	; 0x100
 8002382:	e7bf      	b.n	8002304 <HAL_CAN_IRQHandler+0x15e>
 8002384:	f044 0408 	orr.w	r4, r4, #8
 8002388:	e7bc      	b.n	8002304 <HAL_CAN_IRQHandler+0x15e>
 800238a:	f044 0410 	orr.w	r4, r4, #16
 800238e:	e7b9      	b.n	8002304 <HAL_CAN_IRQHandler+0x15e>
 8002390:	f044 0420 	orr.w	r4, r4, #32
 8002394:	e7b6      	b.n	8002304 <HAL_CAN_IRQHandler+0x15e>
 8002396:	f044 0440 	orr.w	r4, r4, #64	; 0x40
 800239a:	e7b3      	b.n	8002304 <HAL_CAN_IRQHandler+0x15e>
 800239c:	f044 0480 	orr.w	r4, r4, #128	; 0x80
 80023a0:	e7b0      	b.n	8002304 <HAL_CAN_IRQHandler+0x15e>
	...

080023a4 <HAL_NVIC_SetPriorityGrouping>:
 80023a4:	4907      	ldr	r1, [pc, #28]	; (80023c4 <HAL_NVIC_SetPriorityGrouping+0x20>)
 80023a6:	0203      	lsls	r3, r0, #8
 80023a8:	68ca      	ldr	r2, [r1, #12]
 80023aa:	f403 63e0 	and.w	r3, r3, #1792	; 0x700
 80023ae:	f422 62e0 	bic.w	r2, r2, #1792	; 0x700
 80023b2:	0412      	lsls	r2, r2, #16
 80023b4:	0c12      	lsrs	r2, r2, #16
 80023b6:	4313      	orrs	r3, r2
 80023b8:	f043 63bf 	orr.w	r3, r3, #100139008	; 0x5f80000
 80023bc:	f443 3300 	orr.w	r3, r3, #131072	; 0x20000
 80023c0:	60cb      	str	r3, [r1, #12]
 80023c2:	4770      	bx	lr
 80023c4:	e000ed00 	.word	0xe000ed00

080023c8 <HAL_NVIC_SetPriority>:
 80023c8:	4b15      	ldr	r3, [pc, #84]	; (8002420 <HAL_NVIC_SetPriority+0x58>)
 80023ca:	b530      	push	{r4, r5, lr}
 80023cc:	68dc      	ldr	r4, [r3, #12]
 80023ce:	f3c4 2402 	ubfx	r4, r4, #8, #3
 80023d2:	f1c4 0307 	rsb	r3, r4, #7
 80023d6:	1d25      	adds	r5, r4, #4
 80023d8:	2b04      	cmp	r3, #4
 80023da:	bf28      	it	cs
 80023dc:	2304      	movcs	r3, #4
 80023de:	2d06      	cmp	r5, #6
 80023e0:	f04f 35ff 	mov.w	r5, #4294967295
 80023e4:	bf94      	ite	ls
 80023e6:	2400      	movls	r4, #0
 80023e8:	3c03      	subhi	r4, #3
 80023ea:	fa05 f303 	lsl.w	r3, r5, r3
 80023ee:	ea21 0303 	bic.w	r3, r1, r3
 80023f2:	40a5      	lsls	r5, r4
 80023f4:	ea22 0205 	bic.w	r2, r2, r5
 80023f8:	40a3      	lsls	r3, r4
 80023fa:	2800      	cmp	r0, #0
 80023fc:	ea43 0302 	orr.w	r3, r3, r2
 8002400:	bfac      	ite	ge
 8002402:	f100 4060 	addge.w	r0, r0, #3758096384	; 0xe0000000
 8002406:	4a07      	ldrlt	r2, [pc, #28]	; (8002424 <HAL_NVIC_SetPriority+0x5c>)
 8002408:	ea4f 1303 	mov.w	r3, r3, lsl #4
 800240c:	b2db      	uxtb	r3, r3
 800240e:	bfab      	itete	ge
 8002410:	f500 4061 	addge.w	r0, r0, #57600	; 0xe100
 8002414:	f000 000f 	andlt.w	r0, r0, #15
 8002418:	f880 3300 	strbge.w	r3, [r0, #768]	; 0x300
 800241c:	5413      	strblt	r3, [r2, r0]
 800241e:	bd30      	pop	{r4, r5, pc}
 8002420:	e000ed00 	.word	0xe000ed00
 8002424:	e000ed14 	.word	0xe000ed14

08002428 <HAL_NVIC_EnableIRQ>:
 8002428:	2800      	cmp	r0, #0
 800242a:	db07      	blt.n	800243c <HAL_NVIC_EnableIRQ+0x14>
 800242c:	2301      	movs	r3, #1
 800242e:	0941      	lsrs	r1, r0, #5
 8002430:	4a03      	ldr	r2, [pc, #12]	; (8002440 <HAL_NVIC_EnableIRQ+0x18>)
 8002432:	f000 001f 	and.w	r0, r0, #31
 8002436:	4083      	lsls	r3, r0
 8002438:	f842 3021 	str.w	r3, [r2, r1, lsl #2]
 800243c:	4770      	bx	lr
 800243e:	bf00      	nop
 8002440:	e000e100 	.word	0xe000e100

08002444 <HAL_SYSTICK_Config>:
 8002444:	3801      	subs	r0, #1
 8002446:	f1b0 7f80 	cmp.w	r0, #16777216	; 0x1000000
 800244a:	d20b      	bcs.n	8002464 <HAL_SYSTICK_Config+0x20>
 800244c:	f04f 23e0 	mov.w	r3, #3758153728	; 0xe000e000
 8002450:	21f0      	movs	r1, #240	; 0xf0
 8002452:	4a05      	ldr	r2, [pc, #20]	; (8002468 <HAL_SYSTICK_Config+0x24>)
 8002454:	6158      	str	r0, [r3, #20]
 8002456:	f882 1023 	strb.w	r1, [r2, #35]	; 0x23
 800245a:	2000      	movs	r0, #0
 800245c:	2207      	movs	r2, #7
 800245e:	6198      	str	r0, [r3, #24]
 8002460:	611a      	str	r2, [r3, #16]
 8002462:	4770      	bx	lr
 8002464:	2001      	movs	r0, #1
 8002466:	4770      	bx	lr
 8002468:	e000ed00 	.word	0xe000ed00

0800246c <HAL_GPIO_Init>:
 800246c:	e92d 4ff7 	stmdb	sp!, {r0, r1, r2, r4, r5, r6, r7, r8, r9, sl, fp, lr}
 8002470:	2200      	movs	r2, #0
 8002472:	4616      	mov	r6, r2
 8002474:	4f64      	ldr	r7, [pc, #400]	; (8002608 <HAL_GPIO_Init+0x19c>)
 8002476:	4b65      	ldr	r3, [pc, #404]	; (800260c <HAL_GPIO_Init+0x1a0>)
 8002478:	f8df c194 	ldr.w	ip, [pc, #404]	; 8002610 <HAL_GPIO_Init+0x1a4>
 800247c:	f8df e194 	ldr.w	lr, [pc, #404]	; 8002614 <HAL_GPIO_Init+0x1a8>
 8002480:	680d      	ldr	r5, [r1, #0]
 8002482:	fa35 f406 	lsrs.w	r4, r5, r6
 8002486:	d102      	bne.n	800248e <HAL_GPIO_Init+0x22>
 8002488:	b003      	add	sp, #12
 800248a:	e8bd 8ff0 	ldmia.w	sp!, {r4, r5, r6, r7, r8, r9, sl, fp, pc}
 800248e:	f04f 0801 	mov.w	r8, #1
 8002492:	fa08 f806 	lsl.w	r8, r8, r6
 8002496:	ea05 0408 	and.w	r4, r5, r8
 800249a:	ea38 0505 	bics.w	r5, r8, r5
 800249e:	d17a      	bne.n	8002596 <HAL_GPIO_Init+0x12a>
 80024a0:	684d      	ldr	r5, [r1, #4]
 80024a2:	2d03      	cmp	r5, #3
 80024a4:	d807      	bhi.n	80024b6 <HAL_GPIO_Init+0x4a>
 80024a6:	3d01      	subs	r5, #1
 80024a8:	2d02      	cmp	r5, #2
 80024aa:	f200 8087 	bhi.w	80025bc <HAL_GPIO_Init+0x150>
 80024ae:	e8df f005 	tbb	[pc, r5]
 80024b2:	9a95      	.short	0x9a95
 80024b4:	a0          	.byte	0xa0
 80024b5:	00          	.byte	0x00
 80024b6:	2d12      	cmp	r5, #18
 80024b8:	f000 8098 	beq.w	80025ec <HAL_GPIO_Init+0x180>
 80024bc:	d86d      	bhi.n	800259a <HAL_GPIO_Init+0x12e>
 80024be:	2d11      	cmp	r5, #17
 80024c0:	f000 808e 	beq.w	80025e0 <HAL_GPIO_Init+0x174>
 80024c4:	2cff      	cmp	r4, #255	; 0xff
 80024c6:	bf98      	it	ls
 80024c8:	4682      	movls	sl, r0
 80024ca:	f04f 090f 	mov.w	r9, #15
 80024ce:	bf88      	it	hi
 80024d0:	f100 0a04 	addhi.w	sl, r0, #4
 80024d4:	ea4f 0586 	mov.w	r5, r6, lsl #2
 80024d8:	f8da 8000 	ldr.w	r8, [sl]
 80024dc:	bf88      	it	hi
 80024de:	3d20      	subhi	r5, #32
 80024e0:	fa09 fb05 	lsl.w	fp, r9, r5
 80024e4:	ea28 080b 	bic.w	r8, r8, fp
 80024e8:	fa02 f505 	lsl.w	r5, r2, r5
 80024ec:	ea48 0505 	orr.w	r5, r8, r5
 80024f0:	f8ca 5000 	str.w	r5, [sl]
 80024f4:	f8d1 a004 	ldr.w	sl, [r1, #4]
 80024f8:	f01a 5f80 	tst.w	sl, #268435456	; 0x10000000
 80024fc:	d04b      	beq.n	8002596 <HAL_GPIO_Init+0x12a>
 80024fe:	69bd      	ldr	r5, [r7, #24]
 8002500:	f026 0803 	bic.w	r8, r6, #3
 8002504:	f045 0501 	orr.w	r5, r5, #1
 8002508:	61bd      	str	r5, [r7, #24]
 800250a:	69bd      	ldr	r5, [r7, #24]
 800250c:	f108 4880 	add.w	r8, r8, #1073741824	; 0x40000000
 8002510:	f005 0501 	and.w	r5, r5, #1
 8002514:	9501      	str	r5, [sp, #4]
 8002516:	f508 3880 	add.w	r8, r8, #65536	; 0x10000
 800251a:	f006 0b03 	and.w	fp, r6, #3
 800251e:	9d01      	ldr	r5, [sp, #4]
 8002520:	ea4f 0b8b 	mov.w	fp, fp, lsl #2
 8002524:	f8d8 5008 	ldr.w	r5, [r8, #8]
 8002528:	fa09 f90b 	lsl.w	r9, r9, fp
 800252c:	ea25 0909 	bic.w	r9, r5, r9
 8002530:	4d39      	ldr	r5, [pc, #228]	; (8002618 <HAL_GPIO_Init+0x1ac>)
 8002532:	42a8      	cmp	r0, r5
 8002534:	d061      	beq.n	80025fa <HAL_GPIO_Init+0x18e>
 8002536:	f505 6580 	add.w	r5, r5, #1024	; 0x400
 800253a:	42a8      	cmp	r0, r5
 800253c:	d05f      	beq.n	80025fe <HAL_GPIO_Init+0x192>
 800253e:	f505 6580 	add.w	r5, r5, #1024	; 0x400
 8002542:	42a8      	cmp	r0, r5
 8002544:	d05d      	beq.n	8002602 <HAL_GPIO_Init+0x196>
 8002546:	f505 6580 	add.w	r5, r5, #1024	; 0x400
 800254a:	42a8      	cmp	r0, r5
 800254c:	bf0c      	ite	eq
 800254e:	2503      	moveq	r5, #3
 8002550:	2504      	movne	r5, #4
 8002552:	fa05 f50b 	lsl.w	r5, r5, fp
 8002556:	ea45 0509 	orr.w	r5, r5, r9
 800255a:	f8c8 5008 	str.w	r5, [r8, #8]
 800255e:	689d      	ldr	r5, [r3, #8]
 8002560:	f41a 1f80 	tst.w	sl, #1048576	; 0x100000
 8002564:	bf14      	ite	ne
 8002566:	4325      	orrne	r5, r4
 8002568:	43a5      	biceq	r5, r4
 800256a:	609d      	str	r5, [r3, #8]
 800256c:	68dd      	ldr	r5, [r3, #12]
 800256e:	f41a 1f00 	tst.w	sl, #2097152	; 0x200000
 8002572:	bf14      	ite	ne
 8002574:	4325      	orrne	r5, r4
 8002576:	43a5      	biceq	r5, r4
 8002578:	60dd      	str	r5, [r3, #12]
 800257a:	685d      	ldr	r5, [r3, #4]
 800257c:	f41a 3f00 	tst.w	sl, #131072	; 0x20000
 8002580:	bf14      	ite	ne
 8002582:	4325      	orrne	r5, r4
 8002584:	43a5      	biceq	r5, r4
 8002586:	605d      	str	r5, [r3, #4]
 8002588:	681d      	ldr	r5, [r3, #0]
 800258a:	f41a 3f80 	tst.w	sl, #65536	; 0x10000
 800258e:	bf14      	ite	ne
 8002590:	4325      	orrne	r5, r4
 8002592:	43a5      	biceq	r5, r4
 8002594:	601d      	str	r5, [r3, #0]
 8002596:	3601      	adds	r6, #1
 8002598:	e772      	b.n	8002480 <HAL_GPIO_Init+0x14>
 800259a:	f8df 9080 	ldr.w	r9, [pc, #128]	; 800261c <HAL_GPIO_Init+0x1b0>
 800259e:	454d      	cmp	r5, r9
 80025a0:	d00c      	beq.n	80025bc <HAL_GPIO_Init+0x150>
 80025a2:	d817      	bhi.n	80025d4 <HAL_GPIO_Init+0x168>
 80025a4:	f5a9 1980 	sub.w	r9, r9, #1048576	; 0x100000
 80025a8:	454d      	cmp	r5, r9
 80025aa:	d007      	beq.n	80025bc <HAL_GPIO_Init+0x150>
 80025ac:	f509 2970 	add.w	r9, r9, #983040	; 0xf0000
 80025b0:	454d      	cmp	r5, r9
 80025b2:	d003      	beq.n	80025bc <HAL_GPIO_Init+0x150>
 80025b4:	f5a9 1980 	sub.w	r9, r9, #1048576	; 0x100000
 80025b8:	454d      	cmp	r5, r9
 80025ba:	d183      	bne.n	80024c4 <HAL_GPIO_Init+0x58>
 80025bc:	688a      	ldr	r2, [r1, #8]
 80025be:	b1d2      	cbz	r2, 80025f6 <HAL_GPIO_Init+0x18a>
 80025c0:	2a01      	cmp	r2, #1
 80025c2:	bf08      	it	eq
 80025c4:	f8c0 8010 	streq.w	r8, [r0, #16]
 80025c8:	f04f 0208 	mov.w	r2, #8
 80025cc:	bf18      	it	ne
 80025ce:	f8c0 8014 	strne.w	r8, [r0, #20]
 80025d2:	e777      	b.n	80024c4 <HAL_GPIO_Init+0x58>
 80025d4:	4565      	cmp	r5, ip
 80025d6:	d0f1      	beq.n	80025bc <HAL_GPIO_Init+0x150>
 80025d8:	4575      	cmp	r5, lr
 80025da:	e7ee      	b.n	80025ba <HAL_GPIO_Init+0x14e>
 80025dc:	68ca      	ldr	r2, [r1, #12]
 80025de:	e771      	b.n	80024c4 <HAL_GPIO_Init+0x58>
 80025e0:	68ca      	ldr	r2, [r1, #12]
 80025e2:	3204      	adds	r2, #4
 80025e4:	e76e      	b.n	80024c4 <HAL_GPIO_Init+0x58>
 80025e6:	68ca      	ldr	r2, [r1, #12]
 80025e8:	3208      	adds	r2, #8
 80025ea:	e76b      	b.n	80024c4 <HAL_GPIO_Init+0x58>
 80025ec:	68ca      	ldr	r2, [r1, #12]
 80025ee:	320c      	adds	r2, #12
 80025f0:	e768      	b.n	80024c4 <HAL_GPIO_Init+0x58>
 80025f2:	2200      	movs	r2, #0
 80025f4:	e766      	b.n	80024c4 <HAL_GPIO_Init+0x58>
 80025f6:	2204      	movs	r2, #4
 80025f8:	e764      	b.n	80024c4 <HAL_GPIO_Init+0x58>
 80025fa:	2500      	movs	r5, #0
 80025fc:	e7a9      	b.n	8002552 <HAL_GPIO_Init+0xe6>
 80025fe:	2501      	movs	r5, #1
 8002600:	e7a7      	b.n	8002552 <HAL_GPIO_Init+0xe6>
 8002602:	2502      	movs	r5, #2
 8002604:	e7a5      	b.n	8002552 <HAL_GPIO_Init+0xe6>
 8002606:	bf00      	nop
 8002608:	40021000 	.word	0x40021000
 800260c:	40010400 	.word	0x40010400
 8002610:	10310000 	.word	0x10310000
 8002614:	10320000 	.word	0x10320000
 8002618:	40010800 	.word	0x40010800
 800261c:	10220000 	.word	0x10220000

08002620 <HAL_GPIO_WritePin>:
 8002620:	b10a      	cbz	r2, 8002626 <HAL_GPIO_WritePin+0x6>
 8002622:	6101      	str	r1, [r0, #16]
 8002624:	4770      	bx	lr
 8002626:	0409      	lsls	r1, r1, #16
 8002628:	e7fb      	b.n	8002622 <HAL_GPIO_WritePin+0x2>

0800262a <HAL_GPIO_TogglePin>:
 800262a:	68c3      	ldr	r3, [r0, #12]
 800262c:	ea01 0203 	and.w	r2, r1, r3
 8002630:	ea21 0103 	bic.w	r1, r1, r3
 8002634:	ea41 4102 	orr.w	r1, r1, r2, lsl #16
 8002638:	6101      	str	r1, [r0, #16]
 800263a:	4770      	bx	lr

0800263c <I2C_IsAcknowledgeFailed>:
 800263c:	6801      	ldr	r1, [r0, #0]
 800263e:	2200      	movs	r2, #0
 8002640:	694b      	ldr	r3, [r1, #20]
 8002642:	f413 6380 	ands.w	r3, r3, #1024	; 0x400
 8002646:	d010      	beq.n	800266a <I2C_IsAcknowledgeFailed+0x2e>
 8002648:	f46f 6380 	mvn.w	r3, #1024	; 0x400
 800264c:	614b      	str	r3, [r1, #20]
 800264e:	2320      	movs	r3, #32
 8002650:	6302      	str	r2, [r0, #48]	; 0x30
 8002652:	f880 303d 	strb.w	r3, [r0, #61]	; 0x3d
 8002656:	f880 203e 	strb.w	r2, [r0, #62]	; 0x3e
 800265a:	6c03      	ldr	r3, [r0, #64]	; 0x40
 800265c:	f880 203c 	strb.w	r2, [r0, #60]	; 0x3c
 8002660:	f043 0304 	orr.w	r3, r3, #4
 8002664:	6403      	str	r3, [r0, #64]	; 0x40
 8002666:	2001      	movs	r0, #1
 8002668:	4770      	bx	lr
 800266a:	4618      	mov	r0, r3
 800266c:	4770      	bx	lr

0800266e <I2C_WaitOnFlagUntilTimeout>:
 800266e:	e92d 46f8 	stmdb	sp!, {r3, r4, r5, r6, r7, r9, sl, lr}
 8002672:	4606      	mov	r6, r0
 8002674:	460f      	mov	r7, r1
 8002676:	4691      	mov	r9, r2
 8002678:	461d      	mov	r5, r3
 800267a:	ea4f 4a11 	mov.w	sl, r1, lsr #16
 800267e:	6833      	ldr	r3, [r6, #0]
 8002680:	f1ba 0f01 	cmp.w	sl, #1
 8002684:	bf0c      	ite	eq
 8002686:	695c      	ldreq	r4, [r3, #20]
 8002688:	699c      	ldrne	r4, [r3, #24]
 800268a:	ea27 0404 	bic.w	r4, r7, r4
 800268e:	b2a4      	uxth	r4, r4
 8002690:	fab4 f484 	clz	r4, r4
 8002694:	0964      	lsrs	r4, r4, #5
 8002696:	45a1      	cmp	r9, r4
 8002698:	d001      	beq.n	800269e <I2C_WaitOnFlagUntilTimeout+0x30>
 800269a:	2000      	movs	r0, #0
 800269c:	e025      	b.n	80026ea <I2C_WaitOnFlagUntilTimeout+0x7c>
 800269e:	1c6a      	adds	r2, r5, #1
 80026a0:	d0ee      	beq.n	8002680 <I2C_WaitOnFlagUntilTimeout+0x12>
 80026a2:	f7ff fad1 	bl	8001c48 <HAL_GetTick>
 80026a6:	9b08      	ldr	r3, [sp, #32]
 80026a8:	1ac0      	subs	r0, r0, r3
 80026aa:	42a8      	cmp	r0, r5
 80026ac:	d801      	bhi.n	80026b2 <I2C_WaitOnFlagUntilTimeout+0x44>
 80026ae:	2d00      	cmp	r5, #0
 80026b0:	d1e5      	bne.n	800267e <I2C_WaitOnFlagUntilTimeout+0x10>
 80026b2:	6833      	ldr	r3, [r6, #0]
 80026b4:	f1ba 0f01 	cmp.w	sl, #1
 80026b8:	bf0c      	ite	eq
 80026ba:	695b      	ldreq	r3, [r3, #20]
 80026bc:	699b      	ldrne	r3, [r3, #24]
 80026be:	ea27 0303 	bic.w	r3, r7, r3
 80026c2:	b29b      	uxth	r3, r3
 80026c4:	fab3 f383 	clz	r3, r3
 80026c8:	095b      	lsrs	r3, r3, #5
 80026ca:	4599      	cmp	r9, r3
 80026cc:	d1d7      	bne.n	800267e <I2C_WaitOnFlagUntilTimeout+0x10>
 80026ce:	2300      	movs	r3, #0
 80026d0:	2220      	movs	r2, #32
 80026d2:	2001      	movs	r0, #1
 80026d4:	6333      	str	r3, [r6, #48]	; 0x30
 80026d6:	f886 203d 	strb.w	r2, [r6, #61]	; 0x3d
 80026da:	f886 303e 	strb.w	r3, [r6, #62]	; 0x3e
 80026de:	6c32      	ldr	r2, [r6, #64]	; 0x40
 80026e0:	f886 303c 	strb.w	r3, [r6, #60]	; 0x3c
 80026e4:	f042 0220 	orr.w	r2, r2, #32
 80026e8:	6432      	str	r2, [r6, #64]	; 0x40
 80026ea:	e8bd 86f8 	ldmia.w	sp!, {r3, r4, r5, r6, r7, r9, sl, pc}

080026ee <I2C_WaitOnMasterAddressFlagUntilTimeout>:
 80026ee:	e92d 41f0 	stmdb	sp!, {r4, r5, r6, r7, r8, lr}
 80026f2:	4604      	mov	r4, r0
 80026f4:	460f      	mov	r7, r1
 80026f6:	4616      	mov	r6, r2
 80026f8:	4698      	mov	r8, r3
 80026fa:	6825      	ldr	r5, [r4, #0]
 80026fc:	6968      	ldr	r0, [r5, #20]
 80026fe:	ea27 0000 	bic.w	r0, r7, r0
 8002702:	b280      	uxth	r0, r0
 8002704:	b1b8      	cbz	r0, 8002736 <I2C_WaitOnMasterAddressFlagUntilTimeout+0x48>
 8002706:	696b      	ldr	r3, [r5, #20]
 8002708:	055a      	lsls	r2, r3, #21
 800270a:	d516      	bpl.n	800273a <I2C_WaitOnMasterAddressFlagUntilTimeout+0x4c>
 800270c:	682b      	ldr	r3, [r5, #0]
 800270e:	2220      	movs	r2, #32
 8002710:	f443 7300 	orr.w	r3, r3, #512	; 0x200
 8002714:	602b      	str	r3, [r5, #0]
 8002716:	f46f 6380 	mvn.w	r3, #1024	; 0x400
 800271a:	616b      	str	r3, [r5, #20]
 800271c:	2300      	movs	r3, #0
 800271e:	6323      	str	r3, [r4, #48]	; 0x30
 8002720:	f884 203d 	strb.w	r2, [r4, #61]	; 0x3d
 8002724:	f884 303e 	strb.w	r3, [r4, #62]	; 0x3e
 8002728:	6c22      	ldr	r2, [r4, #64]	; 0x40
 800272a:	f042 0204 	orr.w	r2, r2, #4
 800272e:	2001      	movs	r0, #1
 8002730:	6422      	str	r2, [r4, #64]	; 0x40
 8002732:	f884 303c 	strb.w	r3, [r4, #60]	; 0x3c
 8002736:	e8bd 81f0 	ldmia.w	sp!, {r4, r5, r6, r7, r8, pc}
 800273a:	1c73      	adds	r3, r6, #1
 800273c:	d0de      	beq.n	80026fc <I2C_WaitOnMasterAddressFlagUntilTimeout+0xe>
 800273e:	f7ff fa83 	bl	8001c48 <HAL_GetTick>
 8002742:	eba0 0008 	sub.w	r0, r0, r8
 8002746:	42b0      	cmp	r0, r6
 8002748:	d801      	bhi.n	800274e <I2C_WaitOnMasterAddressFlagUntilTimeout+0x60>
 800274a:	2e00      	cmp	r6, #0
 800274c:	d1d5      	bne.n	80026fa <I2C_WaitOnMasterAddressFlagUntilTimeout+0xc>
 800274e:	6823      	ldr	r3, [r4, #0]
 8002750:	695a      	ldr	r2, [r3, #20]
 8002752:	ea27 0202 	bic.w	r2, r7, r2
 8002756:	b292      	uxth	r2, r2
 8002758:	2a00      	cmp	r2, #0
 800275a:	d0ce      	beq.n	80026fa <I2C_WaitOnMasterAddressFlagUntilTimeout+0xc>
 800275c:	2300      	movs	r3, #0
 800275e:	2220      	movs	r2, #32
 8002760:	6323      	str	r3, [r4, #48]	; 0x30
 8002762:	f884 203d 	strb.w	r2, [r4, #61]	; 0x3d
 8002766:	f884 303e 	strb.w	r3, [r4, #62]	; 0x3e
 800276a:	6c22      	ldr	r2, [r4, #64]	; 0x40
 800276c:	f042 0220 	orr.w	r2, r2, #32
 8002770:	e7dd      	b.n	800272e <I2C_WaitOnMasterAddressFlagUntilTimeout+0x40>

08002772 <I2C_WaitOnTXEFlagUntilTimeout>:
 8002772:	b570      	push	{r4, r5, r6, lr}
 8002774:	4604      	mov	r4, r0
 8002776:	460d      	mov	r5, r1
 8002778:	4616      	mov	r6, r2
 800277a:	6823      	ldr	r3, [r4, #0]
 800277c:	695b      	ldr	r3, [r3, #20]
 800277e:	061b      	lsls	r3, r3, #24
 8002780:	d501      	bpl.n	8002786 <I2C_WaitOnTXEFlagUntilTimeout+0x14>
 8002782:	2000      	movs	r0, #0
 8002784:	bd70      	pop	{r4, r5, r6, pc}
 8002786:	4620      	mov	r0, r4
 8002788:	f7ff ff58 	bl	800263c <I2C_IsAcknowledgeFailed>
 800278c:	b9c8      	cbnz	r0, 80027c2 <I2C_WaitOnTXEFlagUntilTimeout+0x50>
 800278e:	1c6a      	adds	r2, r5, #1
 8002790:	d0f3      	beq.n	800277a <I2C_WaitOnTXEFlagUntilTimeout+0x8>
 8002792:	f7ff fa59 	bl	8001c48 <HAL_GetTick>
 8002796:	1b80      	subs	r0, r0, r6
 8002798:	42a8      	cmp	r0, r5
 800279a:	d801      	bhi.n	80027a0 <I2C_WaitOnTXEFlagUntilTimeout+0x2e>
 800279c:	2d00      	cmp	r5, #0
 800279e:	d1ec      	bne.n	800277a <I2C_WaitOnTXEFlagUntilTimeout+0x8>
 80027a0:	6823      	ldr	r3, [r4, #0]
 80027a2:	695b      	ldr	r3, [r3, #20]
 80027a4:	f013 0380 	ands.w	r3, r3, #128	; 0x80
 80027a8:	d1e7      	bne.n	800277a <I2C_WaitOnTXEFlagUntilTimeout+0x8>
 80027aa:	2220      	movs	r2, #32
 80027ac:	6323      	str	r3, [r4, #48]	; 0x30
 80027ae:	f884 203d 	strb.w	r2, [r4, #61]	; 0x3d
 80027b2:	f884 303e 	strb.w	r3, [r4, #62]	; 0x3e
 80027b6:	6c22      	ldr	r2, [r4, #64]	; 0x40
 80027b8:	f884 303c 	strb.w	r3, [r4, #60]	; 0x3c
 80027bc:	f042 0220 	orr.w	r2, r2, #32
 80027c0:	6422      	str	r2, [r4, #64]	; 0x40
 80027c2:	2001      	movs	r0, #1
 80027c4:	e7de      	b.n	8002784 <I2C_WaitOnTXEFlagUntilTimeout+0x12>
	...

080027c8 <I2C_RequestMemoryWrite>:
 80027c8:	e92d 43f0 	stmdb	sp!, {r4, r5, r6, r7, r8, r9, lr}
 80027cc:	4615      	mov	r5, r2
 80027ce:	6802      	ldr	r2, [r0, #0]
 80027d0:	4699      	mov	r9, r3
 80027d2:	6813      	ldr	r3, [r2, #0]
 80027d4:	b085      	sub	sp, #20
 80027d6:	f443 7380 	orr.w	r3, r3, #256	; 0x100
 80027da:	6013      	str	r3, [r2, #0]
 80027dc:	e9dd 780c 	ldrd	r7, r8, [sp, #48]	; 0x30
 80027e0:	460e      	mov	r6, r1
 80027e2:	463b      	mov	r3, r7
 80027e4:	2200      	movs	r2, #0
 80027e6:	f04f 1101 	mov.w	r1, #65537	; 0x10001
 80027ea:	f8cd 8000 	str.w	r8, [sp]
 80027ee:	4604      	mov	r4, r0
 80027f0:	f7ff ff3d 	bl	800266e <I2C_WaitOnFlagUntilTimeout>
 80027f4:	6823      	ldr	r3, [r4, #0]
 80027f6:	b138      	cbz	r0, 8002808 <I2C_RequestMemoryWrite+0x40>
 80027f8:	681b      	ldr	r3, [r3, #0]
 80027fa:	05db      	lsls	r3, r3, #23
 80027fc:	d502      	bpl.n	8002804 <I2C_RequestMemoryWrite+0x3c>
 80027fe:	f44f 7300 	mov.w	r3, #512	; 0x200
 8002802:	6423      	str	r3, [r4, #64]	; 0x40
 8002804:	2003      	movs	r0, #3
 8002806:	e00a      	b.n	800281e <I2C_RequestMemoryWrite+0x56>
 8002808:	f006 06fe 	and.w	r6, r6, #254	; 0xfe
 800280c:	611e      	str	r6, [r3, #16]
 800280e:	463a      	mov	r2, r7
 8002810:	4643      	mov	r3, r8
 8002812:	4620      	mov	r0, r4
 8002814:	4917      	ldr	r1, [pc, #92]	; (8002874 <I2C_RequestMemoryWrite+0xac>)
 8002816:	f7ff ff6a 	bl	80026ee <I2C_WaitOnMasterAddressFlagUntilTimeout>
 800281a:	b118      	cbz	r0, 8002824 <I2C_RequestMemoryWrite+0x5c>
 800281c:	2001      	movs	r0, #1
 800281e:	b005      	add	sp, #20
 8002820:	e8bd 83f0 	ldmia.w	sp!, {r4, r5, r6, r7, r8, r9, pc}
 8002824:	6823      	ldr	r3, [r4, #0]
 8002826:	9003      	str	r0, [sp, #12]
 8002828:	695a      	ldr	r2, [r3, #20]
 800282a:	4639      	mov	r1, r7
 800282c:	9203      	str	r2, [sp, #12]
 800282e:	699b      	ldr	r3, [r3, #24]
 8002830:	4642      	mov	r2, r8
 8002832:	9303      	str	r3, [sp, #12]
 8002834:	4620      	mov	r0, r4
 8002836:	9b03      	ldr	r3, [sp, #12]
 8002838:	f7ff ff9b 	bl	8002772 <I2C_WaitOnTXEFlagUntilTimeout>
 800283c:	b140      	cbz	r0, 8002850 <I2C_RequestMemoryWrite+0x88>
 800283e:	6c23      	ldr	r3, [r4, #64]	; 0x40
 8002840:	2b04      	cmp	r3, #4
 8002842:	bf01      	itttt	eq
 8002844:	6822      	ldreq	r2, [r4, #0]
 8002846:	6813      	ldreq	r3, [r2, #0]
 8002848:	f443 7300 	orreq.w	r3, r3, #512	; 0x200
 800284c:	6013      	streq	r3, [r2, #0]
 800284e:	e7e5      	b.n	800281c <I2C_RequestMemoryWrite+0x54>
 8002850:	f1b9 0f01 	cmp.w	r9, #1
 8002854:	6823      	ldr	r3, [r4, #0]
 8002856:	d102      	bne.n	800285e <I2C_RequestMemoryWrite+0x96>
 8002858:	b2ed      	uxtb	r5, r5
 800285a:	611d      	str	r5, [r3, #16]
 800285c:	e7df      	b.n	800281e <I2C_RequestMemoryWrite+0x56>
 800285e:	0a2a      	lsrs	r2, r5, #8
 8002860:	611a      	str	r2, [r3, #16]
 8002862:	4639      	mov	r1, r7
 8002864:	4642      	mov	r2, r8
 8002866:	4620      	mov	r0, r4
 8002868:	f7ff ff83 	bl	8002772 <I2C_WaitOnTXEFlagUntilTimeout>
 800286c:	2800      	cmp	r0, #0
 800286e:	d1e6      	bne.n	800283e <I2C_RequestMemoryWrite+0x76>
 8002870:	6823      	ldr	r3, [r4, #0]
 8002872:	e7f1      	b.n	8002858 <I2C_RequestMemoryWrite+0x90>
 8002874:	00010002 	.word	0x00010002

08002878 <I2C_RequestMemoryRead>:
 8002878:	e92d 47ff 	stmdb	sp!, {r0, r1, r2, r3, r4, r5, r6, r7, r8, r9, sl, lr}
 800287c:	469a      	mov	sl, r3
 800287e:	e9dd 780c 	ldrd	r7, r8, [sp, #48]	; 0x30
 8002882:	6803      	ldr	r3, [r0, #0]
 8002884:	4615      	mov	r5, r2
 8002886:	681a      	ldr	r2, [r3, #0]
 8002888:	460e      	mov	r6, r1
 800288a:	f442 6280 	orr.w	r2, r2, #1024	; 0x400
 800288e:	601a      	str	r2, [r3, #0]
 8002890:	681a      	ldr	r2, [r3, #0]
 8002892:	f04f 1101 	mov.w	r1, #65537	; 0x10001
 8002896:	f442 7280 	orr.w	r2, r2, #256	; 0x100
 800289a:	601a      	str	r2, [r3, #0]
 800289c:	463b      	mov	r3, r7
 800289e:	2200      	movs	r2, #0
 80028a0:	f8cd 8000 	str.w	r8, [sp]
 80028a4:	4604      	mov	r4, r0
 80028a6:	f7ff fee2 	bl	800266e <I2C_WaitOnFlagUntilTimeout>
 80028aa:	6823      	ldr	r3, [r4, #0]
 80028ac:	b148      	cbz	r0, 80028c2 <I2C_RequestMemoryRead+0x4a>
 80028ae:	681b      	ldr	r3, [r3, #0]
 80028b0:	05db      	lsls	r3, r3, #23
 80028b2:	d502      	bpl.n	80028ba <I2C_RequestMemoryRead+0x42>
 80028b4:	f44f 7300 	mov.w	r3, #512	; 0x200
 80028b8:	6423      	str	r3, [r4, #64]	; 0x40
 80028ba:	2003      	movs	r0, #3
 80028bc:	b004      	add	sp, #16
 80028be:	e8bd 87f0 	ldmia.w	sp!, {r4, r5, r6, r7, r8, r9, sl, pc}
 80028c2:	fa5f f986 	uxtb.w	r9, r6
 80028c6:	f006 06fe 	and.w	r6, r6, #254	; 0xfe
 80028ca:	611e      	str	r6, [r3, #16]
 80028cc:	463a      	mov	r2, r7
 80028ce:	4643      	mov	r3, r8
 80028d0:	4620      	mov	r0, r4
 80028d2:	4929      	ldr	r1, [pc, #164]	; (8002978 <I2C_RequestMemoryRead+0x100>)
 80028d4:	f7ff ff0b 	bl	80026ee <I2C_WaitOnMasterAddressFlagUntilTimeout>
 80028d8:	b108      	cbz	r0, 80028de <I2C_RequestMemoryRead+0x66>
 80028da:	2001      	movs	r0, #1
 80028dc:	e7ee      	b.n	80028bc <I2C_RequestMemoryRead+0x44>
 80028de:	6823      	ldr	r3, [r4, #0]
 80028e0:	9003      	str	r0, [sp, #12]
 80028e2:	695a      	ldr	r2, [r3, #20]
 80028e4:	4639      	mov	r1, r7
 80028e6:	9203      	str	r2, [sp, #12]
 80028e8:	699b      	ldr	r3, [r3, #24]
 80028ea:	4642      	mov	r2, r8
 80028ec:	9303      	str	r3, [sp, #12]
 80028ee:	4620      	mov	r0, r4
 80028f0:	9b03      	ldr	r3, [sp, #12]
 80028f2:	f7ff ff3e 	bl	8002772 <I2C_WaitOnTXEFlagUntilTimeout>
 80028f6:	b140      	cbz	r0, 800290a <I2C_RequestMemoryRead+0x92>
 80028f8:	6c23      	ldr	r3, [r4, #64]	; 0x40
 80028fa:	2b04      	cmp	r3, #4
 80028fc:	bf01      	itttt	eq
 80028fe:	6822      	ldreq	r2, [r4, #0]
 8002900:	6813      	ldreq	r3, [r2, #0]
 8002902:	f443 7300 	orreq.w	r3, r3, #512	; 0x200
 8002906:	6013      	streq	r3, [r2, #0]
 8002908:	e7e7      	b.n	80028da <I2C_RequestMemoryRead+0x62>
 800290a:	f1ba 0f01 	cmp.w	sl, #1
 800290e:	6823      	ldr	r3, [r4, #0]
 8002910:	d11a      	bne.n	8002948 <I2C_RequestMemoryRead+0xd0>
 8002912:	b2ed      	uxtb	r5, r5
 8002914:	4642      	mov	r2, r8
 8002916:	4639      	mov	r1, r7
 8002918:	4620      	mov	r0, r4
 800291a:	611d      	str	r5, [r3, #16]
 800291c:	f7ff ff29 	bl	8002772 <I2C_WaitOnTXEFlagUntilTimeout>
 8002920:	4602      	mov	r2, r0
 8002922:	2800      	cmp	r0, #0
 8002924:	d1e8      	bne.n	80028f8 <I2C_RequestMemoryRead+0x80>
 8002926:	6821      	ldr	r1, [r4, #0]
 8002928:	4620      	mov	r0, r4
 800292a:	680b      	ldr	r3, [r1, #0]
 800292c:	f443 7380 	orr.w	r3, r3, #256	; 0x100
 8002930:	600b      	str	r3, [r1, #0]
 8002932:	463b      	mov	r3, r7
 8002934:	f04f 1101 	mov.w	r1, #65537	; 0x10001
 8002938:	f8cd 8000 	str.w	r8, [sp]
 800293c:	f7ff fe97 	bl	800266e <I2C_WaitOnFlagUntilTimeout>
 8002940:	6822      	ldr	r2, [r4, #0]
 8002942:	b160      	cbz	r0, 800295e <I2C_RequestMemoryRead+0xe6>
 8002944:	6813      	ldr	r3, [r2, #0]
 8002946:	e7b3      	b.n	80028b0 <I2C_RequestMemoryRead+0x38>
 8002948:	0a2a      	lsrs	r2, r5, #8
 800294a:	611a      	str	r2, [r3, #16]
 800294c:	4639      	mov	r1, r7
 800294e:	4642      	mov	r2, r8
 8002950:	4620      	mov	r0, r4
 8002952:	f7ff ff0e 	bl	8002772 <I2C_WaitOnTXEFlagUntilTimeout>
 8002956:	2800      	cmp	r0, #0
 8002958:	d1ce      	bne.n	80028f8 <I2C_RequestMemoryRead+0x80>
 800295a:	6823      	ldr	r3, [r4, #0]
 800295c:	e7d9      	b.n	8002912 <I2C_RequestMemoryRead+0x9a>
 800295e:	f049 0301 	orr.w	r3, r9, #1
 8002962:	6113      	str	r3, [r2, #16]
 8002964:	4620      	mov	r0, r4
 8002966:	4643      	mov	r3, r8
 8002968:	463a      	mov	r2, r7
 800296a:	4903      	ldr	r1, [pc, #12]	; (8002978 <I2C_RequestMemoryRead+0x100>)
 800296c:	f7ff febf 	bl	80026ee <I2C_WaitOnMasterAddressFlagUntilTimeout>
 8002970:	3800      	subs	r0, #0
 8002972:	bf18      	it	ne
 8002974:	2001      	movne	r0, #1
 8002976:	e7a1      	b.n	80028bc <I2C_RequestMemoryRead+0x44>
 8002978:	00010002 	.word	0x00010002

0800297c <I2C_WaitOnBTFFlagUntilTimeout>:
 800297c:	b570      	push	{r4, r5, r6, lr}
 800297e:	4604      	mov	r4, r0
 8002980:	460d      	mov	r5, r1
 8002982:	4616      	mov	r6, r2
 8002984:	6823      	ldr	r3, [r4, #0]
 8002986:	695b      	ldr	r3, [r3, #20]
 8002988:	075b      	lsls	r3, r3, #29
 800298a:	d501      	bpl.n	8002990 <I2C_WaitOnBTFFlagUntilTimeout+0x14>
 800298c:	2000      	movs	r0, #0
 800298e:	bd70      	pop	{r4, r5, r6, pc}
 8002990:	4620      	mov	r0, r4
 8002992:	f7ff fe53 	bl	800263c <I2C_IsAcknowledgeFailed>
 8002996:	b9c8      	cbnz	r0, 80029cc <I2C_WaitOnBTFFlagUntilTimeout+0x50>
 8002998:	1c6a      	adds	r2, r5, #1
 800299a:	d0f3      	beq.n	8002984 <I2C_WaitOnBTFFlagUntilTimeout+0x8>
 800299c:	f7ff f954 	bl	8001c48 <HAL_GetTick>
 80029a0:	1b80      	subs	r0, r0, r6
 80029a2:	42a8      	cmp	r0, r5
 80029a4:	d801      	bhi.n	80029aa <I2C_WaitOnBTFFlagUntilTimeout+0x2e>
 80029a6:	2d00      	cmp	r5, #0
 80029a8:	d1ec      	bne.n	8002984 <I2C_WaitOnBTFFlagUntilTimeout+0x8>
 80029aa:	6823      	ldr	r3, [r4, #0]
 80029ac:	695b      	ldr	r3, [r3, #20]
 80029ae:	f013 0304 	ands.w	r3, r3, #4
 80029b2:	d1e7      	bne.n	8002984 <I2C_WaitOnBTFFlagUntilTimeout+0x8>
 80029b4:	2220      	movs	r2, #32
 80029b6:	6323      	str	r3, [r4, #48]	; 0x30
 80029b8:	f884 203d 	strb.w	r2, [r4, #61]	; 0x3d
 80029bc:	f884 303e 	strb.w	r3, [r4, #62]	; 0x3e
 80029c0:	6c22      	ldr	r2, [r4, #64]	; 0x40
 80029c2:	f884 303c 	strb.w	r3, [r4, #60]	; 0x3c
 80029c6:	f042 0220 	orr.w	r2, r2, #32
 80029ca:	6422      	str	r2, [r4, #64]	; 0x40
 80029cc:	2001      	movs	r0, #1
 80029ce:	e7de      	b.n	800298e <I2C_WaitOnBTFFlagUntilTimeout+0x12>

080029d0 <I2C_WaitOnRXNEFlagUntilTimeout>:
 80029d0:	b570      	push	{r4, r5, r6, lr}
 80029d2:	4604      	mov	r4, r0
 80029d4:	460d      	mov	r5, r1
 80029d6:	4616      	mov	r6, r2
 80029d8:	6821      	ldr	r1, [r4, #0]
 80029da:	694b      	ldr	r3, [r1, #20]
 80029dc:	f013 0340 	ands.w	r3, r3, #64	; 0x40
 80029e0:	d001      	beq.n	80029e6 <I2C_WaitOnRXNEFlagUntilTimeout+0x16>
 80029e2:	2000      	movs	r0, #0
 80029e4:	e010      	b.n	8002a08 <I2C_WaitOnRXNEFlagUntilTimeout+0x38>
 80029e6:	694a      	ldr	r2, [r1, #20]
 80029e8:	06d2      	lsls	r2, r2, #27
 80029ea:	d50e      	bpl.n	8002a0a <I2C_WaitOnRXNEFlagUntilTimeout+0x3a>
 80029ec:	f06f 0210 	mvn.w	r2, #16
 80029f0:	614a      	str	r2, [r1, #20]
 80029f2:	2220      	movs	r2, #32
 80029f4:	6323      	str	r3, [r4, #48]	; 0x30
 80029f6:	f884 203d 	strb.w	r2, [r4, #61]	; 0x3d
 80029fa:	f884 303e 	strb.w	r3, [r4, #62]	; 0x3e
 80029fe:	6c22      	ldr	r2, [r4, #64]	; 0x40
 8002a00:	2001      	movs	r0, #1
 8002a02:	6422      	str	r2, [r4, #64]	; 0x40
 8002a04:	f884 303c 	strb.w	r3, [r4, #60]	; 0x3c
 8002a08:	bd70      	pop	{r4, r5, r6, pc}
 8002a0a:	f7ff f91d 	bl	8001c48 <HAL_GetTick>
 8002a0e:	1b80      	subs	r0, r0, r6
 8002a10:	42a8      	cmp	r0, r5
 8002a12:	d801      	bhi.n	8002a18 <I2C_WaitOnRXNEFlagUntilTimeout+0x48>
 8002a14:	2d00      	cmp	r5, #0
 8002a16:	d1df      	bne.n	80029d8 <I2C_WaitOnRXNEFlagUntilTimeout+0x8>
 8002a18:	6823      	ldr	r3, [r4, #0]
 8002a1a:	695b      	ldr	r3, [r3, #20]
 8002a1c:	f013 0340 	ands.w	r3, r3, #64	; 0x40
 8002a20:	d1da      	bne.n	80029d8 <I2C_WaitOnRXNEFlagUntilTimeout+0x8>
 8002a22:	2220      	movs	r2, #32
 8002a24:	6323      	str	r3, [r4, #48]	; 0x30
 8002a26:	f884 203d 	strb.w	r2, [r4, #61]	; 0x3d
 8002a2a:	f884 303e 	strb.w	r3, [r4, #62]	; 0x3e
 8002a2e:	6c22      	ldr	r2, [r4, #64]	; 0x40
 8002a30:	f042 0220 	orr.w	r2, r2, #32
 8002a34:	e7e4      	b.n	8002a00 <I2C_WaitOnRXNEFlagUntilTimeout+0x30>
	...

08002a38 <HAL_I2C_Init>:
 8002a38:	b570      	push	{r4, r5, r6, lr}
 8002a3a:	4604      	mov	r4, r0
 8002a3c:	b908      	cbnz	r0, 8002a42 <HAL_I2C_Init+0xa>
 8002a3e:	2001      	movs	r0, #1
 8002a40:	bd70      	pop	{r4, r5, r6, pc}
 8002a42:	f890 303d 	ldrb.w	r3, [r0, #61]	; 0x3d
 8002a46:	f003 02ff 	and.w	r2, r3, #255	; 0xff
 8002a4a:	b91b      	cbnz	r3, 8002a54 <HAL_I2C_Init+0x1c>
 8002a4c:	f880 203c 	strb.w	r2, [r0, #60]	; 0x3c
 8002a50:	f7fe ff94 	bl	800197c <HAL_I2C_MspInit>
 8002a54:	2324      	movs	r3, #36	; 0x24
 8002a56:	f884 303d 	strb.w	r3, [r4, #61]	; 0x3d
 8002a5a:	6823      	ldr	r3, [r4, #0]
 8002a5c:	681a      	ldr	r2, [r3, #0]
 8002a5e:	f022 0201 	bic.w	r2, r2, #1
 8002a62:	601a      	str	r2, [r3, #0]
 8002a64:	681a      	ldr	r2, [r3, #0]
 8002a66:	f442 4200 	orr.w	r2, r2, #32768	; 0x8000
 8002a6a:	601a      	str	r2, [r3, #0]
 8002a6c:	681a      	ldr	r2, [r3, #0]
 8002a6e:	f422 4200 	bic.w	r2, r2, #32768	; 0x8000
 8002a72:	601a      	str	r2, [r3, #0]
 8002a74:	f000 fcb4 	bl	80033e0 <HAL_RCC_GetPCLK1Freq>
 8002a78:	4b3f      	ldr	r3, [pc, #252]	; (8002b78 <HAL_I2C_Init+0x140>)
 8002a7a:	6865      	ldr	r5, [r4, #4]
 8002a7c:	429d      	cmp	r5, r3
 8002a7e:	bf94      	ite	ls
 8002a80:	4b3e      	ldrls	r3, [pc, #248]	; (8002b7c <HAL_I2C_Init+0x144>)
 8002a82:	4b3f      	ldrhi	r3, [pc, #252]	; (8002b80 <HAL_I2C_Init+0x148>)
 8002a84:	4298      	cmp	r0, r3
 8002a86:	bf8c      	ite	hi
 8002a88:	2300      	movhi	r3, #0
 8002a8a:	2301      	movls	r3, #1
 8002a8c:	2b00      	cmp	r3, #0
 8002a8e:	d1d6      	bne.n	8002a3e <HAL_I2C_Init+0x6>
 8002a90:	4e39      	ldr	r6, [pc, #228]	; (8002b78 <HAL_I2C_Init+0x140>)
 8002a92:	4b3c      	ldr	r3, [pc, #240]	; (8002b84 <HAL_I2C_Init+0x14c>)
 8002a94:	42b5      	cmp	r5, r6
 8002a96:	fbb0 f3f3 	udiv	r3, r0, r3
 8002a9a:	bf88      	it	hi
 8002a9c:	f44f 7696 	movhi.w	r6, #300	; 0x12c
 8002aa0:	6822      	ldr	r2, [r4, #0]
 8002aa2:	6851      	ldr	r1, [r2, #4]
 8002aa4:	f021 013f 	bic.w	r1, r1, #63	; 0x3f
 8002aa8:	ea41 0103 	orr.w	r1, r1, r3
 8002aac:	bf82      	ittt	hi
 8002aae:	4373      	mulhi	r3, r6
 8002ab0:	f44f 767a 	movhi.w	r6, #1000	; 0x3e8
 8002ab4:	fbb3 f3f6 	udivhi	r3, r3, r6
 8002ab8:	6051      	str	r1, [r2, #4]
 8002aba:	6a11      	ldr	r1, [r2, #32]
 8002abc:	3301      	adds	r3, #1
 8002abe:	f021 013f 	bic.w	r1, r1, #63	; 0x3f
 8002ac2:	430b      	orrs	r3, r1
 8002ac4:	6213      	str	r3, [r2, #32]
 8002ac6:	69d1      	ldr	r1, [r2, #28]
 8002ac8:	1e43      	subs	r3, r0, #1
 8002aca:	482b      	ldr	r0, [pc, #172]	; (8002b78 <HAL_I2C_Init+0x140>)
 8002acc:	f421 414f 	bic.w	r1, r1, #52992	; 0xcf00
 8002ad0:	4285      	cmp	r5, r0
 8002ad2:	f021 01ff 	bic.w	r1, r1, #255	; 0xff
 8002ad6:	d832      	bhi.n	8002b3e <HAL_I2C_Init+0x106>
 8002ad8:	006d      	lsls	r5, r5, #1
 8002ada:	fbb3 f3f5 	udiv	r3, r3, r5
 8002ade:	f640 70fc 	movw	r0, #4092	; 0xffc
 8002ae2:	3301      	adds	r3, #1
 8002ae4:	4203      	tst	r3, r0
 8002ae6:	d042      	beq.n	8002b6e <HAL_I2C_Init+0x136>
 8002ae8:	f3c3 030b 	ubfx	r3, r3, #0, #12
 8002aec:	4319      	orrs	r1, r3
 8002aee:	61d1      	str	r1, [r2, #28]
 8002af0:	6811      	ldr	r1, [r2, #0]
 8002af2:	e9d4 3007 	ldrd	r3, r0, [r4, #28]
 8002af6:	f021 01c0 	bic.w	r1, r1, #192	; 0xc0
 8002afa:	4303      	orrs	r3, r0
 8002afc:	430b      	orrs	r3, r1
 8002afe:	6013      	str	r3, [r2, #0]
 8002b00:	6891      	ldr	r1, [r2, #8]
 8002b02:	e9d4 0303 	ldrd	r0, r3, [r4, #12]
 8002b06:	f421 4103 	bic.w	r1, r1, #33536	; 0x8300
 8002b0a:	4303      	orrs	r3, r0
 8002b0c:	f021 01ff 	bic.w	r1, r1, #255	; 0xff
 8002b10:	430b      	orrs	r3, r1
 8002b12:	6093      	str	r3, [r2, #8]
 8002b14:	68d1      	ldr	r1, [r2, #12]
 8002b16:	e9d4 3005 	ldrd	r3, r0, [r4, #20]
 8002b1a:	f021 01ff 	bic.w	r1, r1, #255	; 0xff
 8002b1e:	4303      	orrs	r3, r0
 8002b20:	430b      	orrs	r3, r1
 8002b22:	60d3      	str	r3, [r2, #12]
 8002b24:	6813      	ldr	r3, [r2, #0]
 8002b26:	2000      	movs	r0, #0
 8002b28:	f043 0301 	orr.w	r3, r3, #1
 8002b2c:	6013      	str	r3, [r2, #0]
 8002b2e:	2320      	movs	r3, #32
 8002b30:	6420      	str	r0, [r4, #64]	; 0x40
 8002b32:	f884 303d 	strb.w	r3, [r4, #61]	; 0x3d
 8002b36:	6320      	str	r0, [r4, #48]	; 0x30
 8002b38:	f884 003e 	strb.w	r0, [r4, #62]	; 0x3e
 8002b3c:	e780      	b.n	8002a40 <HAL_I2C_Init+0x8>
 8002b3e:	68a0      	ldr	r0, [r4, #8]
 8002b40:	b950      	cbnz	r0, 8002b58 <HAL_I2C_Init+0x120>
 8002b42:	eb05 0545 	add.w	r5, r5, r5, lsl #1
 8002b46:	fbb3 f3f5 	udiv	r3, r3, r5
 8002b4a:	3301      	adds	r3, #1
 8002b4c:	f3c3 030b 	ubfx	r3, r3, #0, #12
 8002b50:	b17b      	cbz	r3, 8002b72 <HAL_I2C_Init+0x13a>
 8002b52:	f443 4300 	orr.w	r3, r3, #32768	; 0x8000
 8002b56:	e7c9      	b.n	8002aec <HAL_I2C_Init+0xb4>
 8002b58:	2019      	movs	r0, #25
 8002b5a:	4368      	muls	r0, r5
 8002b5c:	fbb3 f3f0 	udiv	r3, r3, r0
 8002b60:	3301      	adds	r3, #1
 8002b62:	f3c3 030b 	ubfx	r3, r3, #0, #12
 8002b66:	b123      	cbz	r3, 8002b72 <HAL_I2C_Init+0x13a>
 8002b68:	f443 4340 	orr.w	r3, r3, #49152	; 0xc000
 8002b6c:	e7be      	b.n	8002aec <HAL_I2C_Init+0xb4>
 8002b6e:	2304      	movs	r3, #4
 8002b70:	e7bc      	b.n	8002aec <HAL_I2C_Init+0xb4>
 8002b72:	2301      	movs	r3, #1
 8002b74:	e7ba      	b.n	8002aec <HAL_I2C_Init+0xb4>
 8002b76:	bf00      	nop
 8002b78:	000186a0 	.word	0x000186a0
 8002b7c:	001e847f 	.word	0x001e847f
 8002b80:	003d08ff 	.word	0x003d08ff
 8002b84:	000f4240 	.word	0x000f4240

08002b88 <HAL_I2C_Mem_Write>:
 8002b88:	e92d 43f7 	stmdb	sp!, {r0, r1, r2, r4, r5, r6, r7, r8, r9, lr}
 8002b8c:	4604      	mov	r4, r0
 8002b8e:	4699      	mov	r9, r3
 8002b90:	460f      	mov	r7, r1
 8002b92:	4690      	mov	r8, r2
 8002b94:	9e0c      	ldr	r6, [sp, #48]	; 0x30
 8002b96:	f7ff f857 	bl	8001c48 <HAL_GetTick>
 8002b9a:	f894 303d 	ldrb.w	r3, [r4, #61]	; 0x3d
 8002b9e:	4605      	mov	r5, r0
 8002ba0:	2b20      	cmp	r3, #32
 8002ba2:	d003      	beq.n	8002bac <HAL_I2C_Mem_Write+0x24>
 8002ba4:	2002      	movs	r0, #2
 8002ba6:	b003      	add	sp, #12
 8002ba8:	e8bd 83f0 	ldmia.w	sp!, {r4, r5, r6, r7, r8, r9, pc}
 8002bac:	9000      	str	r0, [sp, #0]
 8002bae:	2319      	movs	r3, #25
 8002bb0:	2201      	movs	r2, #1
 8002bb2:	4620      	mov	r0, r4
 8002bb4:	493a      	ldr	r1, [pc, #232]	; (8002ca0 <HAL_I2C_Mem_Write+0x118>)
 8002bb6:	f7ff fd5a 	bl	800266e <I2C_WaitOnFlagUntilTimeout>
 8002bba:	2800      	cmp	r0, #0
 8002bbc:	d1f2      	bne.n	8002ba4 <HAL_I2C_Mem_Write+0x1c>
 8002bbe:	f894 303c 	ldrb.w	r3, [r4, #60]	; 0x3c
 8002bc2:	2b01      	cmp	r3, #1
 8002bc4:	d0ee      	beq.n	8002ba4 <HAL_I2C_Mem_Write+0x1c>
 8002bc6:	2301      	movs	r3, #1
 8002bc8:	6820      	ldr	r0, [r4, #0]
 8002bca:	f884 303c 	strb.w	r3, [r4, #60]	; 0x3c
 8002bce:	6803      	ldr	r3, [r0, #0]
 8002bd0:	4642      	mov	r2, r8
 8002bd2:	07d9      	lsls	r1, r3, #31
 8002bd4:	bf58      	it	pl
 8002bd6:	6803      	ldrpl	r3, [r0, #0]
 8002bd8:	4639      	mov	r1, r7
 8002bda:	bf5c      	itt	pl
 8002bdc:	f043 0301 	orrpl.w	r3, r3, #1
 8002be0:	6003      	strpl	r3, [r0, #0]
 8002be2:	6803      	ldr	r3, [r0, #0]
 8002be4:	f423 6300 	bic.w	r3, r3, #2048	; 0x800
 8002be8:	6003      	str	r3, [r0, #0]
 8002bea:	2321      	movs	r3, #33	; 0x21
 8002bec:	f884 303d 	strb.w	r3, [r4, #61]	; 0x3d
 8002bf0:	2340      	movs	r3, #64	; 0x40
 8002bf2:	f884 303e 	strb.w	r3, [r4, #62]	; 0x3e
 8002bf6:	2300      	movs	r3, #0
 8002bf8:	6423      	str	r3, [r4, #64]	; 0x40
 8002bfa:	9b0a      	ldr	r3, [sp, #40]	; 0x28
 8002bfc:	4620      	mov	r0, r4
 8002bfe:	6263      	str	r3, [r4, #36]	; 0x24
 8002c00:	f8bd 302c 	ldrh.w	r3, [sp, #44]	; 0x2c
 8002c04:	e9cd 6500 	strd	r6, r5, [sp]
 8002c08:	8563      	strh	r3, [r4, #42]	; 0x2a
 8002c0a:	8d63      	ldrh	r3, [r4, #42]	; 0x2a
 8002c0c:	8523      	strh	r3, [r4, #40]	; 0x28
 8002c0e:	4b25      	ldr	r3, [pc, #148]	; (8002ca4 <HAL_I2C_Mem_Write+0x11c>)
 8002c10:	62e3      	str	r3, [r4, #44]	; 0x2c
 8002c12:	464b      	mov	r3, r9
 8002c14:	f7ff fdd8 	bl	80027c8 <I2C_RequestMemoryWrite>
 8002c18:	2800      	cmp	r0, #0
 8002c1a:	d02a      	beq.n	8002c72 <HAL_I2C_Mem_Write+0xea>
 8002c1c:	2001      	movs	r0, #1
 8002c1e:	e7c2      	b.n	8002ba6 <HAL_I2C_Mem_Write+0x1e>
 8002c20:	f7ff fda7 	bl	8002772 <I2C_WaitOnTXEFlagUntilTimeout>
 8002c24:	b140      	cbz	r0, 8002c38 <HAL_I2C_Mem_Write+0xb0>
 8002c26:	6c23      	ldr	r3, [r4, #64]	; 0x40
 8002c28:	2b04      	cmp	r3, #4
 8002c2a:	bf01      	itttt	eq
 8002c2c:	6822      	ldreq	r2, [r4, #0]
 8002c2e:	6813      	ldreq	r3, [r2, #0]
 8002c30:	f443 7300 	orreq.w	r3, r3, #512	; 0x200
 8002c34:	6013      	streq	r3, [r2, #0]
 8002c36:	e7f1      	b.n	8002c1c <HAL_I2C_Mem_Write+0x94>
 8002c38:	6a63      	ldr	r3, [r4, #36]	; 0x24
 8002c3a:	6827      	ldr	r7, [r4, #0]
 8002c3c:	461a      	mov	r2, r3
 8002c3e:	f812 1b01 	ldrb.w	r1, [r2], #1
 8002c42:	6139      	str	r1, [r7, #16]
 8002c44:	6262      	str	r2, [r4, #36]	; 0x24
 8002c46:	8d62      	ldrh	r2, [r4, #42]	; 0x2a
 8002c48:	8d21      	ldrh	r1, [r4, #40]	; 0x28
 8002c4a:	3a01      	subs	r2, #1
 8002c4c:	b292      	uxth	r2, r2
 8002c4e:	8562      	strh	r2, [r4, #42]	; 0x2a
 8002c50:	697a      	ldr	r2, [r7, #20]
 8002c52:	1e48      	subs	r0, r1, #1
 8002c54:	b280      	uxth	r0, r0
 8002c56:	0752      	lsls	r2, r2, #29
 8002c58:	8520      	strh	r0, [r4, #40]	; 0x28
 8002c5a:	d50a      	bpl.n	8002c72 <HAL_I2C_Mem_Write+0xea>
 8002c5c:	b148      	cbz	r0, 8002c72 <HAL_I2C_Mem_Write+0xea>
 8002c5e:	785a      	ldrb	r2, [r3, #1]
 8002c60:	3302      	adds	r3, #2
 8002c62:	613a      	str	r2, [r7, #16]
 8002c64:	6263      	str	r3, [r4, #36]	; 0x24
 8002c66:	8d63      	ldrh	r3, [r4, #42]	; 0x2a
 8002c68:	3902      	subs	r1, #2
 8002c6a:	3b01      	subs	r3, #1
 8002c6c:	b29b      	uxth	r3, r3
 8002c6e:	8521      	strh	r1, [r4, #40]	; 0x28
 8002c70:	8563      	strh	r3, [r4, #42]	; 0x2a
 8002c72:	8d23      	ldrh	r3, [r4, #40]	; 0x28
 8002c74:	462a      	mov	r2, r5
 8002c76:	4631      	mov	r1, r6
 8002c78:	4620      	mov	r0, r4
 8002c7a:	2b00      	cmp	r3, #0
 8002c7c:	d1d0      	bne.n	8002c20 <HAL_I2C_Mem_Write+0x98>
 8002c7e:	f7ff fe7d 	bl	800297c <I2C_WaitOnBTFFlagUntilTimeout>
 8002c82:	2800      	cmp	r0, #0
 8002c84:	d1cf      	bne.n	8002c26 <HAL_I2C_Mem_Write+0x9e>
 8002c86:	6822      	ldr	r2, [r4, #0]
 8002c88:	6813      	ldr	r3, [r2, #0]
 8002c8a:	f443 7300 	orr.w	r3, r3, #512	; 0x200
 8002c8e:	6013      	str	r3, [r2, #0]
 8002c90:	2320      	movs	r3, #32
 8002c92:	f884 003c 	strb.w	r0, [r4, #60]	; 0x3c
 8002c96:	f884 303d 	strb.w	r3, [r4, #61]	; 0x3d
 8002c9a:	f884 003e 	strb.w	r0, [r4, #62]	; 0x3e
 8002c9e:	e782      	b.n	8002ba6 <HAL_I2C_Mem_Write+0x1e>
 8002ca0:	00100002 	.word	0x00100002
 8002ca4:	ffff0000 	.word	0xffff0000

08002ca8 <HAL_I2C_Mem_Read>:
 8002ca8:	e92d 43f0 	stmdb	sp!, {r4, r5, r6, r7, r8, r9, lr}
 8002cac:	4699      	mov	r9, r3
 8002cae:	2300      	movs	r3, #0
 8002cb0:	4604      	mov	r4, r0
 8002cb2:	b089      	sub	sp, #36	; 0x24
 8002cb4:	9303      	str	r3, [sp, #12]
 8002cb6:	460d      	mov	r5, r1
 8002cb8:	4690      	mov	r8, r2
 8002cba:	9f12      	ldr	r7, [sp, #72]	; 0x48
 8002cbc:	f7fe ffc4 	bl	8001c48 <HAL_GetTick>
 8002cc0:	f894 303d 	ldrb.w	r3, [r4, #61]	; 0x3d
 8002cc4:	4606      	mov	r6, r0
 8002cc6:	2b20      	cmp	r3, #32
 8002cc8:	d004      	beq.n	8002cd4 <HAL_I2C_Mem_Read+0x2c>
 8002cca:	2502      	movs	r5, #2
 8002ccc:	4628      	mov	r0, r5
 8002cce:	b009      	add	sp, #36	; 0x24
 8002cd0:	e8bd 83f0 	ldmia.w	sp!, {r4, r5, r6, r7, r8, r9, pc}
 8002cd4:	9000      	str	r0, [sp, #0]
 8002cd6:	2319      	movs	r3, #25
 8002cd8:	2201      	movs	r2, #1
 8002cda:	4620      	mov	r0, r4
 8002cdc:	498d      	ldr	r1, [pc, #564]	; (8002f14 <HAL_I2C_Mem_Read+0x26c>)
 8002cde:	f7ff fcc6 	bl	800266e <I2C_WaitOnFlagUntilTimeout>
 8002ce2:	2800      	cmp	r0, #0
 8002ce4:	d1f1      	bne.n	8002cca <HAL_I2C_Mem_Read+0x22>
 8002ce6:	f894 303c 	ldrb.w	r3, [r4, #60]	; 0x3c
 8002cea:	2b01      	cmp	r3, #1
 8002cec:	d0ed      	beq.n	8002cca <HAL_I2C_Mem_Read+0x22>
 8002cee:	2301      	movs	r3, #1
 8002cf0:	6820      	ldr	r0, [r4, #0]
 8002cf2:	f884 303c 	strb.w	r3, [r4, #60]	; 0x3c
 8002cf6:	6803      	ldr	r3, [r0, #0]
 8002cf8:	4629      	mov	r1, r5
 8002cfa:	07db      	lsls	r3, r3, #31
 8002cfc:	bf58      	it	pl
 8002cfe:	6803      	ldrpl	r3, [r0, #0]
 8002d00:	4642      	mov	r2, r8
 8002d02:	bf5c      	itt	pl
 8002d04:	f043 0301 	orrpl.w	r3, r3, #1
 8002d08:	6003      	strpl	r3, [r0, #0]
 8002d0a:	6803      	ldr	r3, [r0, #0]
 8002d0c:	f423 6300 	bic.w	r3, r3, #2048	; 0x800
 8002d10:	6003      	str	r3, [r0, #0]
 8002d12:	2322      	movs	r3, #34	; 0x22
 8002d14:	f884 303d 	strb.w	r3, [r4, #61]	; 0x3d
 8002d18:	2340      	movs	r3, #64	; 0x40
 8002d1a:	f884 303e 	strb.w	r3, [r4, #62]	; 0x3e
 8002d1e:	2300      	movs	r3, #0
 8002d20:	6423      	str	r3, [r4, #64]	; 0x40
 8002d22:	9b10      	ldr	r3, [sp, #64]	; 0x40
 8002d24:	4620      	mov	r0, r4
 8002d26:	6263      	str	r3, [r4, #36]	; 0x24
 8002d28:	f8bd 3044 	ldrh.w	r3, [sp, #68]	; 0x44
 8002d2c:	e9cd 7600 	strd	r7, r6, [sp]
 8002d30:	8563      	strh	r3, [r4, #42]	; 0x2a
 8002d32:	8d63      	ldrh	r3, [r4, #42]	; 0x2a
 8002d34:	8523      	strh	r3, [r4, #40]	; 0x28
 8002d36:	4b78      	ldr	r3, [pc, #480]	; (8002f18 <HAL_I2C_Mem_Read+0x270>)
 8002d38:	62e3      	str	r3, [r4, #44]	; 0x2c
 8002d3a:	464b      	mov	r3, r9
 8002d3c:	f7ff fd9c 	bl	8002878 <I2C_RequestMemoryRead>
 8002d40:	4605      	mov	r5, r0
 8002d42:	b108      	cbz	r0, 8002d48 <HAL_I2C_Mem_Read+0xa0>
 8002d44:	2501      	movs	r5, #1
 8002d46:	e7c1      	b.n	8002ccc <HAL_I2C_Mem_Read+0x24>
 8002d48:	8d22      	ldrh	r2, [r4, #40]	; 0x28
 8002d4a:	6823      	ldr	r3, [r4, #0]
 8002d4c:	b9c2      	cbnz	r2, 8002d80 <HAL_I2C_Mem_Read+0xd8>
 8002d4e:	9004      	str	r0, [sp, #16]
 8002d50:	695a      	ldr	r2, [r3, #20]
 8002d52:	9204      	str	r2, [sp, #16]
 8002d54:	699a      	ldr	r2, [r3, #24]
 8002d56:	9204      	str	r2, [sp, #16]
 8002d58:	9a04      	ldr	r2, [sp, #16]
 8002d5a:	681a      	ldr	r2, [r3, #0]
 8002d5c:	f442 7200 	orr.w	r2, r2, #512	; 0x200
 8002d60:	601a      	str	r2, [r3, #0]
 8002d62:	f8df 81b8 	ldr.w	r8, [pc, #440]	; 8002f1c <HAL_I2C_Mem_Read+0x274>
 8002d66:	f8df 91b8 	ldr.w	r9, [pc, #440]	; 8002f20 <HAL_I2C_Mem_Read+0x278>
 8002d6a:	8d23      	ldrh	r3, [r4, #40]	; 0x28
 8002d6c:	2b00      	cmp	r3, #0
 8002d6e:	d137      	bne.n	8002de0 <HAL_I2C_Mem_Read+0x138>
 8002d70:	2220      	movs	r2, #32
 8002d72:	f884 303c 	strb.w	r3, [r4, #60]	; 0x3c
 8002d76:	f884 203d 	strb.w	r2, [r4, #61]	; 0x3d
 8002d7a:	f884 303e 	strb.w	r3, [r4, #62]	; 0x3e
 8002d7e:	e7a5      	b.n	8002ccc <HAL_I2C_Mem_Read+0x24>
 8002d80:	2a01      	cmp	r2, #1
 8002d82:	d111      	bne.n	8002da8 <HAL_I2C_Mem_Read+0x100>
 8002d84:	681a      	ldr	r2, [r3, #0]
 8002d86:	f422 6280 	bic.w	r2, r2, #1024	; 0x400
 8002d8a:	601a      	str	r2, [r3, #0]
 8002d8c:	b672      	cpsid	i
 8002d8e:	6823      	ldr	r3, [r4, #0]
 8002d90:	9005      	str	r0, [sp, #20]
 8002d92:	695a      	ldr	r2, [r3, #20]
 8002d94:	9205      	str	r2, [sp, #20]
 8002d96:	699a      	ldr	r2, [r3, #24]
 8002d98:	9205      	str	r2, [sp, #20]
 8002d9a:	9a05      	ldr	r2, [sp, #20]
 8002d9c:	681a      	ldr	r2, [r3, #0]
 8002d9e:	f442 7200 	orr.w	r2, r2, #512	; 0x200
 8002da2:	601a      	str	r2, [r3, #0]
 8002da4:	b662      	cpsie	i
 8002da6:	e7dc      	b.n	8002d62 <HAL_I2C_Mem_Read+0xba>
 8002da8:	2a02      	cmp	r2, #2
 8002daa:	681a      	ldr	r2, [r3, #0]
 8002dac:	d10e      	bne.n	8002dcc <HAL_I2C_Mem_Read+0x124>
 8002dae:	f442 6200 	orr.w	r2, r2, #2048	; 0x800
 8002db2:	601a      	str	r2, [r3, #0]
 8002db4:	b672      	cpsid	i
 8002db6:	6823      	ldr	r3, [r4, #0]
 8002db8:	9006      	str	r0, [sp, #24]
 8002dba:	695a      	ldr	r2, [r3, #20]
 8002dbc:	9206      	str	r2, [sp, #24]
 8002dbe:	699a      	ldr	r2, [r3, #24]
 8002dc0:	9206      	str	r2, [sp, #24]
 8002dc2:	9a06      	ldr	r2, [sp, #24]
 8002dc4:	681a      	ldr	r2, [r3, #0]
 8002dc6:	f422 6280 	bic.w	r2, r2, #1024	; 0x400
 8002dca:	e7ea      	b.n	8002da2 <HAL_I2C_Mem_Read+0xfa>
 8002dcc:	f442 6280 	orr.w	r2, r2, #1024	; 0x400
 8002dd0:	601a      	str	r2, [r3, #0]
 8002dd2:	9007      	str	r0, [sp, #28]
 8002dd4:	695a      	ldr	r2, [r3, #20]
 8002dd6:	9207      	str	r2, [sp, #28]
 8002dd8:	699b      	ldr	r3, [r3, #24]
 8002dda:	9307      	str	r3, [sp, #28]
 8002ddc:	9b07      	ldr	r3, [sp, #28]
 8002dde:	e7c0      	b.n	8002d62 <HAL_I2C_Mem_Read+0xba>
 8002de0:	2b03      	cmp	r3, #3
 8002de2:	d878      	bhi.n	8002ed6 <HAL_I2C_Mem_Read+0x22e>
 8002de4:	2b01      	cmp	r3, #1
 8002de6:	d115      	bne.n	8002e14 <HAL_I2C_Mem_Read+0x16c>
 8002de8:	4632      	mov	r2, r6
 8002dea:	4639      	mov	r1, r7
 8002dec:	4620      	mov	r0, r4
 8002dee:	f7ff fdef 	bl	80029d0 <I2C_WaitOnRXNEFlagUntilTimeout>
 8002df2:	2800      	cmp	r0, #0
 8002df4:	d1a6      	bne.n	8002d44 <HAL_I2C_Mem_Read+0x9c>
 8002df6:	6823      	ldr	r3, [r4, #0]
 8002df8:	691a      	ldr	r2, [r3, #16]
 8002dfa:	6a63      	ldr	r3, [r4, #36]	; 0x24
 8002dfc:	701a      	strb	r2, [r3, #0]
 8002dfe:	6a63      	ldr	r3, [r4, #36]	; 0x24
 8002e00:	3301      	adds	r3, #1
 8002e02:	6263      	str	r3, [r4, #36]	; 0x24
 8002e04:	8d23      	ldrh	r3, [r4, #40]	; 0x28
 8002e06:	3b01      	subs	r3, #1
 8002e08:	8523      	strh	r3, [r4, #40]	; 0x28
 8002e0a:	8d63      	ldrh	r3, [r4, #42]	; 0x2a
 8002e0c:	3b01      	subs	r3, #1
 8002e0e:	b29b      	uxth	r3, r3
 8002e10:	8563      	strh	r3, [r4, #42]	; 0x2a
 8002e12:	e7aa      	b.n	8002d6a <HAL_I2C_Mem_Read+0xc2>
 8002e14:	2b02      	cmp	r3, #2
 8002e16:	f04f 0200 	mov.w	r2, #0
 8002e1a:	463b      	mov	r3, r7
 8002e1c:	4641      	mov	r1, r8
 8002e1e:	4620      	mov	r0, r4
 8002e20:	9600      	str	r6, [sp, #0]
 8002e22:	d118      	bne.n	8002e56 <HAL_I2C_Mem_Read+0x1ae>
 8002e24:	f7ff fc23 	bl	800266e <I2C_WaitOnFlagUntilTimeout>
 8002e28:	2800      	cmp	r0, #0
 8002e2a:	d18b      	bne.n	8002d44 <HAL_I2C_Mem_Read+0x9c>
 8002e2c:	b672      	cpsid	i
 8002e2e:	6823      	ldr	r3, [r4, #0]
 8002e30:	681a      	ldr	r2, [r3, #0]
 8002e32:	f442 7200 	orr.w	r2, r2, #512	; 0x200
 8002e36:	601a      	str	r2, [r3, #0]
 8002e38:	691a      	ldr	r2, [r3, #16]
 8002e3a:	6a63      	ldr	r3, [r4, #36]	; 0x24
 8002e3c:	701a      	strb	r2, [r3, #0]
 8002e3e:	6a63      	ldr	r3, [r4, #36]	; 0x24
 8002e40:	3301      	adds	r3, #1
 8002e42:	6263      	str	r3, [r4, #36]	; 0x24
 8002e44:	8d23      	ldrh	r3, [r4, #40]	; 0x28
 8002e46:	3b01      	subs	r3, #1
 8002e48:	8523      	strh	r3, [r4, #40]	; 0x28
 8002e4a:	8d63      	ldrh	r3, [r4, #42]	; 0x2a
 8002e4c:	3b01      	subs	r3, #1
 8002e4e:	b29b      	uxth	r3, r3
 8002e50:	8563      	strh	r3, [r4, #42]	; 0x2a
 8002e52:	b662      	cpsie	i
 8002e54:	e7cf      	b.n	8002df6 <HAL_I2C_Mem_Read+0x14e>
 8002e56:	f7ff fc0a 	bl	800266e <I2C_WaitOnFlagUntilTimeout>
 8002e5a:	2800      	cmp	r0, #0
 8002e5c:	f47f af72 	bne.w	8002d44 <HAL_I2C_Mem_Read+0x9c>
 8002e60:	6822      	ldr	r2, [r4, #0]
 8002e62:	6813      	ldr	r3, [r2, #0]
 8002e64:	f423 6380 	bic.w	r3, r3, #1024	; 0x400
 8002e68:	6013      	str	r3, [r2, #0]
 8002e6a:	b672      	cpsid	i
 8002e6c:	f246 11a8 	movw	r1, #25000	; 0x61a8
 8002e70:	6823      	ldr	r3, [r4, #0]
 8002e72:	691a      	ldr	r2, [r3, #16]
 8002e74:	6a63      	ldr	r3, [r4, #36]	; 0x24
 8002e76:	701a      	strb	r2, [r3, #0]
 8002e78:	6a62      	ldr	r2, [r4, #36]	; 0x24
 8002e7a:	1c53      	adds	r3, r2, #1
 8002e7c:	6263      	str	r3, [r4, #36]	; 0x24
 8002e7e:	8d23      	ldrh	r3, [r4, #40]	; 0x28
 8002e80:	3b01      	subs	r3, #1
 8002e82:	8523      	strh	r3, [r4, #40]	; 0x28
 8002e84:	8d63      	ldrh	r3, [r4, #42]	; 0x2a
 8002e86:	3b01      	subs	r3, #1
 8002e88:	b29b      	uxth	r3, r3
 8002e8a:	8563      	strh	r3, [r4, #42]	; 0x2a
 8002e8c:	f8d9 3000 	ldr.w	r3, [r9]
 8002e90:	fbb3 f3f1 	udiv	r3, r3, r1
 8002e94:	2123      	movs	r1, #35	; 0x23
 8002e96:	434b      	muls	r3, r1
 8002e98:	9303      	str	r3, [sp, #12]
 8002e9a:	9b03      	ldr	r3, [sp, #12]
 8002e9c:	3b01      	subs	r3, #1
 8002e9e:	9303      	str	r3, [sp, #12]
 8002ea0:	9b03      	ldr	r3, [sp, #12]
 8002ea2:	b96b      	cbnz	r3, 8002ec0 <HAL_I2C_Mem_Read+0x218>
 8002ea4:	2220      	movs	r2, #32
 8002ea6:	6323      	str	r3, [r4, #48]	; 0x30
 8002ea8:	f884 203d 	strb.w	r2, [r4, #61]	; 0x3d
 8002eac:	f884 303e 	strb.w	r3, [r4, #62]	; 0x3e
 8002eb0:	6c22      	ldr	r2, [r4, #64]	; 0x40
 8002eb2:	f042 0220 	orr.w	r2, r2, #32
 8002eb6:	6422      	str	r2, [r4, #64]	; 0x40
 8002eb8:	b662      	cpsie	i
 8002eba:	f884 303c 	strb.w	r3, [r4, #60]	; 0x3c
 8002ebe:	e741      	b.n	8002d44 <HAL_I2C_Mem_Read+0x9c>
 8002ec0:	6823      	ldr	r3, [r4, #0]
 8002ec2:	6959      	ldr	r1, [r3, #20]
 8002ec4:	0748      	lsls	r0, r1, #29
 8002ec6:	d5e8      	bpl.n	8002e9a <HAL_I2C_Mem_Read+0x1f2>
 8002ec8:	6819      	ldr	r1, [r3, #0]
 8002eca:	f441 7100 	orr.w	r1, r1, #512	; 0x200
 8002ece:	6019      	str	r1, [r3, #0]
 8002ed0:	691b      	ldr	r3, [r3, #16]
 8002ed2:	7053      	strb	r3, [r2, #1]
 8002ed4:	e7b3      	b.n	8002e3e <HAL_I2C_Mem_Read+0x196>
 8002ed6:	4632      	mov	r2, r6
 8002ed8:	4639      	mov	r1, r7
 8002eda:	4620      	mov	r0, r4
 8002edc:	f7ff fd78 	bl	80029d0 <I2C_WaitOnRXNEFlagUntilTimeout>
 8002ee0:	2800      	cmp	r0, #0
 8002ee2:	f47f af2f 	bne.w	8002d44 <HAL_I2C_Mem_Read+0x9c>
 8002ee6:	6823      	ldr	r3, [r4, #0]
 8002ee8:	691a      	ldr	r2, [r3, #16]
 8002eea:	6a63      	ldr	r3, [r4, #36]	; 0x24
 8002eec:	701a      	strb	r2, [r3, #0]
 8002eee:	6a62      	ldr	r2, [r4, #36]	; 0x24
 8002ef0:	1c53      	adds	r3, r2, #1
 8002ef2:	6263      	str	r3, [r4, #36]	; 0x24
 8002ef4:	8d23      	ldrh	r3, [r4, #40]	; 0x28
 8002ef6:	3b01      	subs	r3, #1
 8002ef8:	8523      	strh	r3, [r4, #40]	; 0x28
 8002efa:	8d63      	ldrh	r3, [r4, #42]	; 0x2a
 8002efc:	3b01      	subs	r3, #1
 8002efe:	b29b      	uxth	r3, r3
 8002f00:	8563      	strh	r3, [r4, #42]	; 0x2a
 8002f02:	6823      	ldr	r3, [r4, #0]
 8002f04:	6959      	ldr	r1, [r3, #20]
 8002f06:	0749      	lsls	r1, r1, #29
 8002f08:	f57f af2f 	bpl.w	8002d6a <HAL_I2C_Mem_Read+0xc2>
 8002f0c:	691b      	ldr	r3, [r3, #16]
 8002f0e:	7053      	strb	r3, [r2, #1]
 8002f10:	e775      	b.n	8002dfe <HAL_I2C_Mem_Read+0x156>
 8002f12:	bf00      	nop
 8002f14:	00100002 	.word	0x00100002
 8002f18:	ffff0000 	.word	0xffff0000
 8002f1c:	00010004 	.word	0x00010004
 8002f20:	20000004 	.word	0x20000004

08002f24 <HAL_RCC_OscConfig>:
 8002f24:	e92d 41f3 	stmdb	sp!, {r0, r1, r4, r5, r6, r7, r8, lr}
 8002f28:	4605      	mov	r5, r0
 8002f2a:	b338      	cbz	r0, 8002f7c <HAL_RCC_OscConfig+0x58>
 8002f2c:	6803      	ldr	r3, [r0, #0]
 8002f2e:	07db      	lsls	r3, r3, #31
 8002f30:	d410      	bmi.n	8002f54 <HAL_RCC_OscConfig+0x30>
 8002f32:	682b      	ldr	r3, [r5, #0]
 8002f34:	079f      	lsls	r7, r3, #30
 8002f36:	d45e      	bmi.n	8002ff6 <HAL_RCC_OscConfig+0xd2>
 8002f38:	682b      	ldr	r3, [r5, #0]
 8002f3a:	0719      	lsls	r1, r3, #28
 8002f3c:	f100 8095 	bmi.w	800306a <HAL_RCC_OscConfig+0x146>
 8002f40:	682b      	ldr	r3, [r5, #0]
 8002f42:	075a      	lsls	r2, r3, #29
 8002f44:	f100 80c1 	bmi.w	80030ca <HAL_RCC_OscConfig+0x1a6>
 8002f48:	69e8      	ldr	r0, [r5, #28]
 8002f4a:	2800      	cmp	r0, #0
 8002f4c:	f040 812c 	bne.w	80031a8 <HAL_RCC_OscConfig+0x284>
 8002f50:	2000      	movs	r0, #0
 8002f52:	e029      	b.n	8002fa8 <HAL_RCC_OscConfig+0x84>
 8002f54:	4c90      	ldr	r4, [pc, #576]	; (8003198 <HAL_RCC_OscConfig+0x274>)
 8002f56:	6863      	ldr	r3, [r4, #4]
 8002f58:	f003 030c 	and.w	r3, r3, #12
 8002f5c:	2b04      	cmp	r3, #4
 8002f5e:	d007      	beq.n	8002f70 <HAL_RCC_OscConfig+0x4c>
 8002f60:	6863      	ldr	r3, [r4, #4]
 8002f62:	f003 030c 	and.w	r3, r3, #12
 8002f66:	2b08      	cmp	r3, #8
 8002f68:	d10a      	bne.n	8002f80 <HAL_RCC_OscConfig+0x5c>
 8002f6a:	6863      	ldr	r3, [r4, #4]
 8002f6c:	03de      	lsls	r6, r3, #15
 8002f6e:	d507      	bpl.n	8002f80 <HAL_RCC_OscConfig+0x5c>
 8002f70:	6823      	ldr	r3, [r4, #0]
 8002f72:	039c      	lsls	r4, r3, #14
 8002f74:	d5dd      	bpl.n	8002f32 <HAL_RCC_OscConfig+0xe>
 8002f76:	686b      	ldr	r3, [r5, #4]
 8002f78:	2b00      	cmp	r3, #0
 8002f7a:	d1da      	bne.n	8002f32 <HAL_RCC_OscConfig+0xe>
 8002f7c:	2001      	movs	r0, #1
 8002f7e:	e013      	b.n	8002fa8 <HAL_RCC_OscConfig+0x84>
 8002f80:	686b      	ldr	r3, [r5, #4]
 8002f82:	f5b3 3f80 	cmp.w	r3, #65536	; 0x10000
 8002f86:	d112      	bne.n	8002fae <HAL_RCC_OscConfig+0x8a>
 8002f88:	6823      	ldr	r3, [r4, #0]
 8002f8a:	f443 3380 	orr.w	r3, r3, #65536	; 0x10000
 8002f8e:	6023      	str	r3, [r4, #0]
 8002f90:	f7fe fe5a 	bl	8001c48 <HAL_GetTick>
 8002f94:	4606      	mov	r6, r0
 8002f96:	6823      	ldr	r3, [r4, #0]
 8002f98:	0398      	lsls	r0, r3, #14
 8002f9a:	d4ca      	bmi.n	8002f32 <HAL_RCC_OscConfig+0xe>
 8002f9c:	f7fe fe54 	bl	8001c48 <HAL_GetTick>
 8002fa0:	1b80      	subs	r0, r0, r6
 8002fa2:	2864      	cmp	r0, #100	; 0x64
 8002fa4:	d9f7      	bls.n	8002f96 <HAL_RCC_OscConfig+0x72>
 8002fa6:	2003      	movs	r0, #3
 8002fa8:	b002      	add	sp, #8
 8002faa:	e8bd 81f0 	ldmia.w	sp!, {r4, r5, r6, r7, r8, pc}
 8002fae:	b99b      	cbnz	r3, 8002fd8 <HAL_RCC_OscConfig+0xb4>
 8002fb0:	6823      	ldr	r3, [r4, #0]
 8002fb2:	f423 3380 	bic.w	r3, r3, #65536	; 0x10000
 8002fb6:	6023      	str	r3, [r4, #0]
 8002fb8:	6823      	ldr	r3, [r4, #0]
 8002fba:	f423 2380 	bic.w	r3, r3, #262144	; 0x40000
 8002fbe:	6023      	str	r3, [r4, #0]
 8002fc0:	f7fe fe42 	bl	8001c48 <HAL_GetTick>
 8002fc4:	4606      	mov	r6, r0
 8002fc6:	6823      	ldr	r3, [r4, #0]
 8002fc8:	0399      	lsls	r1, r3, #14
 8002fca:	d5b2      	bpl.n	8002f32 <HAL_RCC_OscConfig+0xe>
 8002fcc:	f7fe fe3c 	bl	8001c48 <HAL_GetTick>
 8002fd0:	1b80      	subs	r0, r0, r6
 8002fd2:	2864      	cmp	r0, #100	; 0x64
 8002fd4:	d9f7      	bls.n	8002fc6 <HAL_RCC_OscConfig+0xa2>
 8002fd6:	e7e6      	b.n	8002fa6 <HAL_RCC_OscConfig+0x82>
 8002fd8:	f5b3 2fa0 	cmp.w	r3, #327680	; 0x50000
 8002fdc:	6823      	ldr	r3, [r4, #0]
 8002fde:	d103      	bne.n	8002fe8 <HAL_RCC_OscConfig+0xc4>
 8002fe0:	f443 2380 	orr.w	r3, r3, #262144	; 0x40000
 8002fe4:	6023      	str	r3, [r4, #0]
 8002fe6:	e7cf      	b.n	8002f88 <HAL_RCC_OscConfig+0x64>
 8002fe8:	f423 3380 	bic.w	r3, r3, #65536	; 0x10000
 8002fec:	6023      	str	r3, [r4, #0]
 8002fee:	6823      	ldr	r3, [r4, #0]
 8002ff0:	f423 2380 	bic.w	r3, r3, #262144	; 0x40000
 8002ff4:	e7cb      	b.n	8002f8e <HAL_RCC_OscConfig+0x6a>
 8002ff6:	4c68      	ldr	r4, [pc, #416]	; (8003198 <HAL_RCC_OscConfig+0x274>)
 8002ff8:	6863      	ldr	r3, [r4, #4]
 8002ffa:	f013 0f0c 	tst.w	r3, #12
 8002ffe:	d007      	beq.n	8003010 <HAL_RCC_OscConfig+0xec>
 8003000:	6863      	ldr	r3, [r4, #4]
 8003002:	f003 030c 	and.w	r3, r3, #12
 8003006:	2b08      	cmp	r3, #8
 8003008:	d110      	bne.n	800302c <HAL_RCC_OscConfig+0x108>
 800300a:	6863      	ldr	r3, [r4, #4]
 800300c:	03da      	lsls	r2, r3, #15
 800300e:	d40d      	bmi.n	800302c <HAL_RCC_OscConfig+0x108>
 8003010:	6823      	ldr	r3, [r4, #0]
 8003012:	079b      	lsls	r3, r3, #30
 8003014:	d502      	bpl.n	800301c <HAL_RCC_OscConfig+0xf8>
 8003016:	692b      	ldr	r3, [r5, #16]
 8003018:	2b01      	cmp	r3, #1
 800301a:	d1af      	bne.n	8002f7c <HAL_RCC_OscConfig+0x58>
 800301c:	6823      	ldr	r3, [r4, #0]
 800301e:	696a      	ldr	r2, [r5, #20]
 8003020:	f023 03f8 	bic.w	r3, r3, #248	; 0xf8
 8003024:	ea43 03c2 	orr.w	r3, r3, r2, lsl #3
 8003028:	6023      	str	r3, [r4, #0]
 800302a:	e785      	b.n	8002f38 <HAL_RCC_OscConfig+0x14>
 800302c:	692a      	ldr	r2, [r5, #16]
 800302e:	4b5b      	ldr	r3, [pc, #364]	; (800319c <HAL_RCC_OscConfig+0x278>)
 8003030:	b16a      	cbz	r2, 800304e <HAL_RCC_OscConfig+0x12a>
 8003032:	2201      	movs	r2, #1
 8003034:	601a      	str	r2, [r3, #0]
 8003036:	f7fe fe07 	bl	8001c48 <HAL_GetTick>
 800303a:	4606      	mov	r6, r0
 800303c:	6823      	ldr	r3, [r4, #0]
 800303e:	079f      	lsls	r7, r3, #30
 8003040:	d4ec      	bmi.n	800301c <HAL_RCC_OscConfig+0xf8>
 8003042:	f7fe fe01 	bl	8001c48 <HAL_GetTick>
 8003046:	1b80      	subs	r0, r0, r6
 8003048:	2802      	cmp	r0, #2
 800304a:	d9f7      	bls.n	800303c <HAL_RCC_OscConfig+0x118>
 800304c:	e7ab      	b.n	8002fa6 <HAL_RCC_OscConfig+0x82>
 800304e:	601a      	str	r2, [r3, #0]
 8003050:	f7fe fdfa 	bl	8001c48 <HAL_GetTick>
 8003054:	4606      	mov	r6, r0
 8003056:	6823      	ldr	r3, [r4, #0]
 8003058:	0798      	lsls	r0, r3, #30
 800305a:	f57f af6d 	bpl.w	8002f38 <HAL_RCC_OscConfig+0x14>
 800305e:	f7fe fdf3 	bl	8001c48 <HAL_GetTick>
 8003062:	1b80      	subs	r0, r0, r6
 8003064:	2802      	cmp	r0, #2
 8003066:	d9f6      	bls.n	8003056 <HAL_RCC_OscConfig+0x132>
 8003068:	e79d      	b.n	8002fa6 <HAL_RCC_OscConfig+0x82>
 800306a:	69aa      	ldr	r2, [r5, #24]
 800306c:	4e4a      	ldr	r6, [pc, #296]	; (8003198 <HAL_RCC_OscConfig+0x274>)
 800306e:	4b4b      	ldr	r3, [pc, #300]	; (800319c <HAL_RCC_OscConfig+0x278>)
 8003070:	b1e2      	cbz	r2, 80030ac <HAL_RCC_OscConfig+0x188>
 8003072:	2201      	movs	r2, #1
 8003074:	f8c3 2480 	str.w	r2, [r3, #1152]	; 0x480
 8003078:	f7fe fde6 	bl	8001c48 <HAL_GetTick>
 800307c:	4604      	mov	r4, r0
 800307e:	6a73      	ldr	r3, [r6, #36]	; 0x24
 8003080:	079b      	lsls	r3, r3, #30
 8003082:	d50d      	bpl.n	80030a0 <HAL_RCC_OscConfig+0x17c>
 8003084:	f44f 52fa 	mov.w	r2, #8000	; 0x1f40
 8003088:	4b45      	ldr	r3, [pc, #276]	; (80031a0 <HAL_RCC_OscConfig+0x27c>)
 800308a:	681b      	ldr	r3, [r3, #0]
 800308c:	fbb3 f3f2 	udiv	r3, r3, r2
 8003090:	9301      	str	r3, [sp, #4]
 8003092:	bf00      	nop
 8003094:	9b01      	ldr	r3, [sp, #4]
 8003096:	1e5a      	subs	r2, r3, #1
 8003098:	9201      	str	r2, [sp, #4]
 800309a:	2b00      	cmp	r3, #0
 800309c:	d1f9      	bne.n	8003092 <HAL_RCC_OscConfig+0x16e>
 800309e:	e74f      	b.n	8002f40 <HAL_RCC_OscConfig+0x1c>
 80030a0:	f7fe fdd2 	bl	8001c48 <HAL_GetTick>
 80030a4:	1b00      	subs	r0, r0, r4
 80030a6:	2802      	cmp	r0, #2
 80030a8:	d9e9      	bls.n	800307e <HAL_RCC_OscConfig+0x15a>
 80030aa:	e77c      	b.n	8002fa6 <HAL_RCC_OscConfig+0x82>
 80030ac:	f8c3 2480 	str.w	r2, [r3, #1152]	; 0x480
 80030b0:	f7fe fdca 	bl	8001c48 <HAL_GetTick>
 80030b4:	4604      	mov	r4, r0
 80030b6:	6a73      	ldr	r3, [r6, #36]	; 0x24
 80030b8:	079f      	lsls	r7, r3, #30
 80030ba:	f57f af41 	bpl.w	8002f40 <HAL_RCC_OscConfig+0x1c>
 80030be:	f7fe fdc3 	bl	8001c48 <HAL_GetTick>
 80030c2:	1b00      	subs	r0, r0, r4
 80030c4:	2802      	cmp	r0, #2
 80030c6:	d9f6      	bls.n	80030b6 <HAL_RCC_OscConfig+0x192>
 80030c8:	e76d      	b.n	8002fa6 <HAL_RCC_OscConfig+0x82>
 80030ca:	4c33      	ldr	r4, [pc, #204]	; (8003198 <HAL_RCC_OscConfig+0x274>)
 80030cc:	69e3      	ldr	r3, [r4, #28]
 80030ce:	00d8      	lsls	r0, r3, #3
 80030d0:	d424      	bmi.n	800311c <HAL_RCC_OscConfig+0x1f8>
 80030d2:	2701      	movs	r7, #1
 80030d4:	69e3      	ldr	r3, [r4, #28]
 80030d6:	f043 5380 	orr.w	r3, r3, #268435456	; 0x10000000
 80030da:	61e3      	str	r3, [r4, #28]
 80030dc:	69e3      	ldr	r3, [r4, #28]
 80030de:	f003 5380 	and.w	r3, r3, #268435456	; 0x10000000
 80030e2:	9300      	str	r3, [sp, #0]
 80030e4:	9b00      	ldr	r3, [sp, #0]
 80030e6:	4e2f      	ldr	r6, [pc, #188]	; (80031a4 <HAL_RCC_OscConfig+0x280>)
 80030e8:	6833      	ldr	r3, [r6, #0]
 80030ea:	05d9      	lsls	r1, r3, #23
 80030ec:	d518      	bpl.n	8003120 <HAL_RCC_OscConfig+0x1fc>
 80030ee:	68eb      	ldr	r3, [r5, #12]
 80030f0:	2b01      	cmp	r3, #1
 80030f2:	d126      	bne.n	8003142 <HAL_RCC_OscConfig+0x21e>
 80030f4:	6a23      	ldr	r3, [r4, #32]
 80030f6:	f043 0301 	orr.w	r3, r3, #1
 80030fa:	6223      	str	r3, [r4, #32]
 80030fc:	f7fe fda4 	bl	8001c48 <HAL_GetTick>
 8003100:	f241 3888 	movw	r8, #5000	; 0x1388
 8003104:	4606      	mov	r6, r0
 8003106:	6a23      	ldr	r3, [r4, #32]
 8003108:	079b      	lsls	r3, r3, #30
 800310a:	d53f      	bpl.n	800318c <HAL_RCC_OscConfig+0x268>
 800310c:	2f00      	cmp	r7, #0
 800310e:	f43f af1b 	beq.w	8002f48 <HAL_RCC_OscConfig+0x24>
 8003112:	69e3      	ldr	r3, [r4, #28]
 8003114:	f023 5380 	bic.w	r3, r3, #268435456	; 0x10000000
 8003118:	61e3      	str	r3, [r4, #28]
 800311a:	e715      	b.n	8002f48 <HAL_RCC_OscConfig+0x24>
 800311c:	2700      	movs	r7, #0
 800311e:	e7e2      	b.n	80030e6 <HAL_RCC_OscConfig+0x1c2>
 8003120:	6833      	ldr	r3, [r6, #0]
 8003122:	f443 7380 	orr.w	r3, r3, #256	; 0x100
 8003126:	6033      	str	r3, [r6, #0]
 8003128:	f7fe fd8e 	bl	8001c48 <HAL_GetTick>
 800312c:	4680      	mov	r8, r0
 800312e:	6833      	ldr	r3, [r6, #0]
 8003130:	05da      	lsls	r2, r3, #23
 8003132:	d4dc      	bmi.n	80030ee <HAL_RCC_OscConfig+0x1ca>
 8003134:	f7fe fd88 	bl	8001c48 <HAL_GetTick>
 8003138:	eba0 0008 	sub.w	r0, r0, r8
 800313c:	2864      	cmp	r0, #100	; 0x64
 800313e:	d9f6      	bls.n	800312e <HAL_RCC_OscConfig+0x20a>
 8003140:	e731      	b.n	8002fa6 <HAL_RCC_OscConfig+0x82>
 8003142:	b9ab      	cbnz	r3, 8003170 <HAL_RCC_OscConfig+0x24c>
 8003144:	6a23      	ldr	r3, [r4, #32]
 8003146:	f241 3888 	movw	r8, #5000	; 0x1388
 800314a:	f023 0301 	bic.w	r3, r3, #1
 800314e:	6223      	str	r3, [r4, #32]
 8003150:	6a23      	ldr	r3, [r4, #32]
 8003152:	f023 0304 	bic.w	r3, r3, #4
 8003156:	6223      	str	r3, [r4, #32]
 8003158:	f7fe fd76 	bl	8001c48 <HAL_GetTick>
 800315c:	4606      	mov	r6, r0
 800315e:	6a23      	ldr	r3, [r4, #32]
 8003160:	0798      	lsls	r0, r3, #30
 8003162:	d5d3      	bpl.n	800310c <HAL_RCC_OscConfig+0x1e8>
 8003164:	f7fe fd70 	bl	8001c48 <HAL_GetTick>
 8003168:	1b80      	subs	r0, r0, r6
 800316a:	4540      	cmp	r0, r8
 800316c:	d9f7      	bls.n	800315e <HAL_RCC_OscConfig+0x23a>
 800316e:	e71a      	b.n	8002fa6 <HAL_RCC_OscConfig+0x82>
 8003170:	2b05      	cmp	r3, #5
 8003172:	6a23      	ldr	r3, [r4, #32]
 8003174:	d103      	bne.n	800317e <HAL_RCC_OscConfig+0x25a>
 8003176:	f043 0304 	orr.w	r3, r3, #4
 800317a:	6223      	str	r3, [r4, #32]
 800317c:	e7ba      	b.n	80030f4 <HAL_RCC_OscConfig+0x1d0>
 800317e:	f023 0301 	bic.w	r3, r3, #1
 8003182:	6223      	str	r3, [r4, #32]
 8003184:	6a23      	ldr	r3, [r4, #32]
 8003186:	f023 0304 	bic.w	r3, r3, #4
 800318a:	e7b6      	b.n	80030fa <HAL_RCC_OscConfig+0x1d6>
 800318c:	f7fe fd5c 	bl	8001c48 <HAL_GetTick>
 8003190:	1b80      	subs	r0, r0, r6
 8003192:	4540      	cmp	r0, r8
 8003194:	d9b7      	bls.n	8003106 <HAL_RCC_OscConfig+0x1e2>
 8003196:	e706      	b.n	8002fa6 <HAL_RCC_OscConfig+0x82>
 8003198:	40021000 	.word	0x40021000
 800319c:	42420000 	.word	0x42420000
 80031a0:	20000004 	.word	0x20000004
 80031a4:	40007000 	.word	0x40007000
 80031a8:	4c2a      	ldr	r4, [pc, #168]	; (8003254 <HAL_RCC_OscConfig+0x330>)
 80031aa:	6863      	ldr	r3, [r4, #4]
 80031ac:	f003 030c 	and.w	r3, r3, #12
 80031b0:	2b08      	cmp	r3, #8
 80031b2:	d03e      	beq.n	8003232 <HAL_RCC_OscConfig+0x30e>
 80031b4:	2200      	movs	r2, #0
 80031b6:	4b28      	ldr	r3, [pc, #160]	; (8003258 <HAL_RCC_OscConfig+0x334>)
 80031b8:	2802      	cmp	r0, #2
 80031ba:	661a      	str	r2, [r3, #96]	; 0x60
 80031bc:	d12c      	bne.n	8003218 <HAL_RCC_OscConfig+0x2f4>
 80031be:	f7fe fd43 	bl	8001c48 <HAL_GetTick>
 80031c2:	4606      	mov	r6, r0
 80031c4:	6823      	ldr	r3, [r4, #0]
 80031c6:	0199      	lsls	r1, r3, #6
 80031c8:	d420      	bmi.n	800320c <HAL_RCC_OscConfig+0x2e8>
 80031ca:	6a2b      	ldr	r3, [r5, #32]
 80031cc:	f5b3 3f80 	cmp.w	r3, #65536	; 0x10000
 80031d0:	d105      	bne.n	80031de <HAL_RCC_OscConfig+0x2ba>
 80031d2:	6862      	ldr	r2, [r4, #4]
 80031d4:	68a9      	ldr	r1, [r5, #8]
 80031d6:	f422 3200 	bic.w	r2, r2, #131072	; 0x20000
 80031da:	430a      	orrs	r2, r1
 80031dc:	6062      	str	r2, [r4, #4]
 80031de:	6a69      	ldr	r1, [r5, #36]	; 0x24
 80031e0:	6862      	ldr	r2, [r4, #4]
 80031e2:	430b      	orrs	r3, r1
 80031e4:	f422 1274 	bic.w	r2, r2, #3997696	; 0x3d0000
 80031e8:	4313      	orrs	r3, r2
 80031ea:	2201      	movs	r2, #1
 80031ec:	6063      	str	r3, [r4, #4]
 80031ee:	4b1a      	ldr	r3, [pc, #104]	; (8003258 <HAL_RCC_OscConfig+0x334>)
 80031f0:	661a      	str	r2, [r3, #96]	; 0x60
 80031f2:	f7fe fd29 	bl	8001c48 <HAL_GetTick>
 80031f6:	4605      	mov	r5, r0
 80031f8:	6823      	ldr	r3, [r4, #0]
 80031fa:	019a      	lsls	r2, r3, #6
 80031fc:	f53f aea8 	bmi.w	8002f50 <HAL_RCC_OscConfig+0x2c>
 8003200:	f7fe fd22 	bl	8001c48 <HAL_GetTick>
 8003204:	1b40      	subs	r0, r0, r5
 8003206:	2802      	cmp	r0, #2
 8003208:	d9f6      	bls.n	80031f8 <HAL_RCC_OscConfig+0x2d4>
 800320a:	e6cc      	b.n	8002fa6 <HAL_RCC_OscConfig+0x82>
 800320c:	f7fe fd1c 	bl	8001c48 <HAL_GetTick>
 8003210:	1b80      	subs	r0, r0, r6
 8003212:	2802      	cmp	r0, #2
 8003214:	d9d6      	bls.n	80031c4 <HAL_RCC_OscConfig+0x2a0>
 8003216:	e6c6      	b.n	8002fa6 <HAL_RCC_OscConfig+0x82>
 8003218:	f7fe fd16 	bl	8001c48 <HAL_GetTick>
 800321c:	4605      	mov	r5, r0
 800321e:	6823      	ldr	r3, [r4, #0]
 8003220:	019b      	lsls	r3, r3, #6
 8003222:	f57f ae95 	bpl.w	8002f50 <HAL_RCC_OscConfig+0x2c>
 8003226:	f7fe fd0f 	bl	8001c48 <HAL_GetTick>
 800322a:	1b40      	subs	r0, r0, r5
 800322c:	2802      	cmp	r0, #2
 800322e:	d9f6      	bls.n	800321e <HAL_RCC_OscConfig+0x2fa>
 8003230:	e6b9      	b.n	8002fa6 <HAL_RCC_OscConfig+0x82>
 8003232:	2801      	cmp	r0, #1
 8003234:	f43f aeb8 	beq.w	8002fa8 <HAL_RCC_OscConfig+0x84>
 8003238:	6863      	ldr	r3, [r4, #4]
 800323a:	6a2a      	ldr	r2, [r5, #32]
 800323c:	f403 3180 	and.w	r1, r3, #65536	; 0x10000
 8003240:	4291      	cmp	r1, r2
 8003242:	f47f ae9b 	bne.w	8002f7c <HAL_RCC_OscConfig+0x58>
 8003246:	6a6a      	ldr	r2, [r5, #36]	; 0x24
 8003248:	f403 1370 	and.w	r3, r3, #3932160	; 0x3c0000
 800324c:	4293      	cmp	r3, r2
 800324e:	f43f ae7f 	beq.w	8002f50 <HAL_RCC_OscConfig+0x2c>
 8003252:	e693      	b.n	8002f7c <HAL_RCC_OscConfig+0x58>
 8003254:	40021000 	.word	0x40021000
 8003258:	42420000 	.word	0x42420000

0800325c <HAL_RCC_GetSysClockFreq>:
 800325c:	4a0d      	ldr	r2, [pc, #52]	; (8003294 <HAL_RCC_GetSysClockFreq+0x38>)
 800325e:	6853      	ldr	r3, [r2, #4]
 8003260:	f003 010c 	and.w	r1, r3, #12
 8003264:	2908      	cmp	r1, #8
 8003266:	d112      	bne.n	800328e <HAL_RCC_GetSysClockFreq+0x32>
 8003268:	480b      	ldr	r0, [pc, #44]	; (8003298 <HAL_RCC_GetSysClockFreq+0x3c>)
 800326a:	f3c3 4183 	ubfx	r1, r3, #18, #4
 800326e:	03db      	lsls	r3, r3, #15
 8003270:	5c40      	ldrb	r0, [r0, r1]
 8003272:	d509      	bpl.n	8003288 <HAL_RCC_GetSysClockFreq+0x2c>
 8003274:	6853      	ldr	r3, [r2, #4]
 8003276:	4a09      	ldr	r2, [pc, #36]	; (800329c <HAL_RCC_GetSysClockFreq+0x40>)
 8003278:	f3c3 4340 	ubfx	r3, r3, #17, #1
 800327c:	4350      	muls	r0, r2
 800327e:	4a08      	ldr	r2, [pc, #32]	; (80032a0 <HAL_RCC_GetSysClockFreq+0x44>)
 8003280:	5cd3      	ldrb	r3, [r2, r3]
 8003282:	fbb0 f0f3 	udiv	r0, r0, r3
 8003286:	4770      	bx	lr
 8003288:	4b06      	ldr	r3, [pc, #24]	; (80032a4 <HAL_RCC_GetSysClockFreq+0x48>)
 800328a:	4358      	muls	r0, r3
 800328c:	4770      	bx	lr
 800328e:	4803      	ldr	r0, [pc, #12]	; (800329c <HAL_RCC_GetSysClockFreq+0x40>)
 8003290:	4770      	bx	lr
 8003292:	bf00      	nop
 8003294:	40021000 	.word	0x40021000
 8003298:	08004688 	.word	0x08004688
 800329c:	007a1200 	.word	0x007a1200
 80032a0:	08004698 	.word	0x08004698
 80032a4:	003d0900 	.word	0x003d0900

080032a8 <HAL_RCC_ClockConfig>:
 80032a8:	e92d 41f0 	stmdb	sp!, {r4, r5, r6, r7, r8, lr}
 80032ac:	460d      	mov	r5, r1
 80032ae:	4604      	mov	r4, r0
 80032b0:	b910      	cbnz	r0, 80032b8 <HAL_RCC_ClockConfig+0x10>
 80032b2:	2001      	movs	r0, #1
 80032b4:	e8bd 81f0 	ldmia.w	sp!, {r4, r5, r6, r7, r8, pc}
 80032b8:	4a44      	ldr	r2, [pc, #272]	; (80033cc <HAL_RCC_ClockConfig+0x124>)
 80032ba:	6813      	ldr	r3, [r2, #0]
 80032bc:	f003 0307 	and.w	r3, r3, #7
 80032c0:	428b      	cmp	r3, r1
 80032c2:	d328      	bcc.n	8003316 <HAL_RCC_ClockConfig+0x6e>
 80032c4:	6821      	ldr	r1, [r4, #0]
 80032c6:	078e      	lsls	r6, r1, #30
 80032c8:	d430      	bmi.n	800332c <HAL_RCC_ClockConfig+0x84>
 80032ca:	07ca      	lsls	r2, r1, #31
 80032cc:	d443      	bmi.n	8003356 <HAL_RCC_ClockConfig+0xae>
 80032ce:	4a3f      	ldr	r2, [pc, #252]	; (80033cc <HAL_RCC_ClockConfig+0x124>)
 80032d0:	6813      	ldr	r3, [r2, #0]
 80032d2:	f003 0307 	and.w	r3, r3, #7
 80032d6:	42ab      	cmp	r3, r5
 80032d8:	d865      	bhi.n	80033a6 <HAL_RCC_ClockConfig+0xfe>
 80032da:	6822      	ldr	r2, [r4, #0]
 80032dc:	4d3c      	ldr	r5, [pc, #240]	; (80033d0 <HAL_RCC_ClockConfig+0x128>)
 80032de:	f012 0f04 	tst.w	r2, #4
 80032e2:	d16c      	bne.n	80033be <HAL_RCC_ClockConfig+0x116>
 80032e4:	0713      	lsls	r3, r2, #28
 80032e6:	d506      	bpl.n	80032f6 <HAL_RCC_ClockConfig+0x4e>
 80032e8:	686b      	ldr	r3, [r5, #4]
 80032ea:	6922      	ldr	r2, [r4, #16]
 80032ec:	f423 5360 	bic.w	r3, r3, #14336	; 0x3800
 80032f0:	ea43 03c2 	orr.w	r3, r3, r2, lsl #3
 80032f4:	606b      	str	r3, [r5, #4]
 80032f6:	f7ff ffb1 	bl	800325c <HAL_RCC_GetSysClockFreq>
 80032fa:	686b      	ldr	r3, [r5, #4]
 80032fc:	4a35      	ldr	r2, [pc, #212]	; (80033d4 <HAL_RCC_ClockConfig+0x12c>)
 80032fe:	f3c3 1303 	ubfx	r3, r3, #4, #4
 8003302:	5cd3      	ldrb	r3, [r2, r3]
 8003304:	40d8      	lsrs	r0, r3
 8003306:	4b34      	ldr	r3, [pc, #208]	; (80033d8 <HAL_RCC_ClockConfig+0x130>)
 8003308:	6018      	str	r0, [r3, #0]
 800330a:	4b34      	ldr	r3, [pc, #208]	; (80033dc <HAL_RCC_ClockConfig+0x134>)
 800330c:	6818      	ldr	r0, [r3, #0]
 800330e:	f7fe fc59 	bl	8001bc4 <HAL_InitTick>
 8003312:	2000      	movs	r0, #0
 8003314:	e7ce      	b.n	80032b4 <HAL_RCC_ClockConfig+0xc>
 8003316:	6813      	ldr	r3, [r2, #0]
 8003318:	f023 0307 	bic.w	r3, r3, #7
 800331c:	430b      	orrs	r3, r1
 800331e:	6013      	str	r3, [r2, #0]
 8003320:	6813      	ldr	r3, [r2, #0]
 8003322:	f003 0307 	and.w	r3, r3, #7
 8003326:	428b      	cmp	r3, r1
 8003328:	d1c3      	bne.n	80032b2 <HAL_RCC_ClockConfig+0xa>
 800332a:	e7cb      	b.n	80032c4 <HAL_RCC_ClockConfig+0x1c>
 800332c:	4b28      	ldr	r3, [pc, #160]	; (80033d0 <HAL_RCC_ClockConfig+0x128>)
 800332e:	f011 0f04 	tst.w	r1, #4
 8003332:	bf1e      	ittt	ne
 8003334:	685a      	ldrne	r2, [r3, #4]
 8003336:	f442 62e0 	orrne.w	r2, r2, #1792	; 0x700
 800333a:	605a      	strne	r2, [r3, #4]
 800333c:	0708      	lsls	r0, r1, #28
 800333e:	bf42      	ittt	mi
 8003340:	685a      	ldrmi	r2, [r3, #4]
 8003342:	f442 5260 	orrmi.w	r2, r2, #14336	; 0x3800
 8003346:	605a      	strmi	r2, [r3, #4]
 8003348:	685a      	ldr	r2, [r3, #4]
 800334a:	68a0      	ldr	r0, [r4, #8]
 800334c:	f022 02f0 	bic.w	r2, r2, #240	; 0xf0
 8003350:	4302      	orrs	r2, r0
 8003352:	605a      	str	r2, [r3, #4]
 8003354:	e7b9      	b.n	80032ca <HAL_RCC_ClockConfig+0x22>
 8003356:	6862      	ldr	r2, [r4, #4]
 8003358:	4e1d      	ldr	r6, [pc, #116]	; (80033d0 <HAL_RCC_ClockConfig+0x128>)
 800335a:	2a01      	cmp	r2, #1
 800335c:	6833      	ldr	r3, [r6, #0]
 800335e:	d11a      	bne.n	8003396 <HAL_RCC_ClockConfig+0xee>
 8003360:	f413 3f00 	tst.w	r3, #131072	; 0x20000
 8003364:	d0a5      	beq.n	80032b2 <HAL_RCC_ClockConfig+0xa>
 8003366:	6873      	ldr	r3, [r6, #4]
 8003368:	f241 3888 	movw	r8, #5000	; 0x1388
 800336c:	f023 0303 	bic.w	r3, r3, #3
 8003370:	4313      	orrs	r3, r2
 8003372:	6073      	str	r3, [r6, #4]
 8003374:	f7fe fc68 	bl	8001c48 <HAL_GetTick>
 8003378:	4607      	mov	r7, r0
 800337a:	6873      	ldr	r3, [r6, #4]
 800337c:	6862      	ldr	r2, [r4, #4]
 800337e:	f003 030c 	and.w	r3, r3, #12
 8003382:	ebb3 0f82 	cmp.w	r3, r2, lsl #2
 8003386:	d0a2      	beq.n	80032ce <HAL_RCC_ClockConfig+0x26>
 8003388:	f7fe fc5e 	bl	8001c48 <HAL_GetTick>
 800338c:	1bc0      	subs	r0, r0, r7
 800338e:	4540      	cmp	r0, r8
 8003390:	d9f3      	bls.n	800337a <HAL_RCC_ClockConfig+0xd2>
 8003392:	2003      	movs	r0, #3
 8003394:	e78e      	b.n	80032b4 <HAL_RCC_ClockConfig+0xc>
 8003396:	2a02      	cmp	r2, #2
 8003398:	d102      	bne.n	80033a0 <HAL_RCC_ClockConfig+0xf8>
 800339a:	f013 7f00 	tst.w	r3, #33554432	; 0x2000000
 800339e:	e7e1      	b.n	8003364 <HAL_RCC_ClockConfig+0xbc>
 80033a0:	f013 0f02 	tst.w	r3, #2
 80033a4:	e7de      	b.n	8003364 <HAL_RCC_ClockConfig+0xbc>
 80033a6:	6813      	ldr	r3, [r2, #0]
 80033a8:	f023 0307 	bic.w	r3, r3, #7
 80033ac:	432b      	orrs	r3, r5
 80033ae:	6013      	str	r3, [r2, #0]
 80033b0:	6813      	ldr	r3, [r2, #0]
 80033b2:	f003 0307 	and.w	r3, r3, #7
 80033b6:	42ab      	cmp	r3, r5
 80033b8:	f47f af7b 	bne.w	80032b2 <HAL_RCC_ClockConfig+0xa>
 80033bc:	e78d      	b.n	80032da <HAL_RCC_ClockConfig+0x32>
 80033be:	686b      	ldr	r3, [r5, #4]
 80033c0:	68e1      	ldr	r1, [r4, #12]
 80033c2:	f423 63e0 	bic.w	r3, r3, #1792	; 0x700
 80033c6:	430b      	orrs	r3, r1
 80033c8:	606b      	str	r3, [r5, #4]
 80033ca:	e78b      	b.n	80032e4 <HAL_RCC_ClockConfig+0x3c>
 80033cc:	40022000 	.word	0x40022000
 80033d0:	40021000 	.word	0x40021000
 80033d4:	08004670 	.word	0x08004670
 80033d8:	20000004 	.word	0x20000004
 80033dc:	2000000c 	.word	0x2000000c

080033e0 <HAL_RCC_GetPCLK1Freq>:
 80033e0:	4b04      	ldr	r3, [pc, #16]	; (80033f4 <HAL_RCC_GetPCLK1Freq+0x14>)
 80033e2:	4a05      	ldr	r2, [pc, #20]	; (80033f8 <HAL_RCC_GetPCLK1Freq+0x18>)
 80033e4:	685b      	ldr	r3, [r3, #4]
 80033e6:	f3c3 2302 	ubfx	r3, r3, #8, #3
 80033ea:	5cd3      	ldrb	r3, [r2, r3]
 80033ec:	4a03      	ldr	r2, [pc, #12]	; (80033fc <HAL_RCC_GetPCLK1Freq+0x1c>)
 80033ee:	6810      	ldr	r0, [r2, #0]
 80033f0:	40d8      	lsrs	r0, r3
 80033f2:	4770      	bx	lr
 80033f4:	40021000 	.word	0x40021000
 80033f8:	08004680 	.word	0x08004680
 80033fc:	20000004 	.word	0x20000004

08003400 <HAL_RCC_GetPCLK2Freq>:
 8003400:	4b04      	ldr	r3, [pc, #16]	; (8003414 <HAL_RCC_GetPCLK2Freq+0x14>)
 8003402:	4a05      	ldr	r2, [pc, #20]	; (8003418 <HAL_RCC_GetPCLK2Freq+0x18>)
 8003404:	685b      	ldr	r3, [r3, #4]
 8003406:	f3c3 23c2 	ubfx	r3, r3, #11, #3
 800340a:	5cd3      	ldrb	r3, [r2, r3]
 800340c:	4a03      	ldr	r2, [pc, #12]	; (800341c <HAL_RCC_GetPCLK2Freq+0x1c>)
 800340e:	6810      	ldr	r0, [r2, #0]
 8003410:	40d8      	lsrs	r0, r3
 8003412:	4770      	bx	lr
 8003414:	40021000 	.word	0x40021000
 8003418:	08004680 	.word	0x08004680
 800341c:	20000004 	.word	0x20000004

08003420 <HAL_RCCEx_PeriphCLKConfig>:
 8003420:	6803      	ldr	r3, [r0, #0]
 8003422:	e92d 41f3 	stmdb	sp!, {r0, r1, r4, r5, r6, r7, r8, lr}
 8003426:	07d9      	lsls	r1, r3, #31
 8003428:	4605      	mov	r5, r0
 800342a:	d521      	bpl.n	8003470 <HAL_RCCEx_PeriphCLKConfig+0x50>
 800342c:	4c36      	ldr	r4, [pc, #216]	; (8003508 <HAL_RCCEx_PeriphCLKConfig+0xe8>)
 800342e:	69e3      	ldr	r3, [r4, #28]
 8003430:	00da      	lsls	r2, r3, #3
 8003432:	d433      	bmi.n	800349c <HAL_RCCEx_PeriphCLKConfig+0x7c>
 8003434:	2601      	movs	r6, #1
 8003436:	69e3      	ldr	r3, [r4, #28]
 8003438:	f043 5380 	orr.w	r3, r3, #268435456	; 0x10000000
 800343c:	61e3      	str	r3, [r4, #28]
 800343e:	69e3      	ldr	r3, [r4, #28]
 8003440:	f003 5380 	and.w	r3, r3, #268435456	; 0x10000000
 8003444:	9301      	str	r3, [sp, #4]
 8003446:	9b01      	ldr	r3, [sp, #4]
 8003448:	4f30      	ldr	r7, [pc, #192]	; (800350c <HAL_RCCEx_PeriphCLKConfig+0xec>)
 800344a:	683b      	ldr	r3, [r7, #0]
 800344c:	05db      	lsls	r3, r3, #23
 800344e:	d527      	bpl.n	80034a0 <HAL_RCCEx_PeriphCLKConfig+0x80>
 8003450:	6a23      	ldr	r3, [r4, #32]
 8003452:	686a      	ldr	r2, [r5, #4]
 8003454:	f413 7340 	ands.w	r3, r3, #768	; 0x300
 8003458:	d136      	bne.n	80034c8 <HAL_RCCEx_PeriphCLKConfig+0xa8>
 800345a:	6a23      	ldr	r3, [r4, #32]
 800345c:	686a      	ldr	r2, [r5, #4]
 800345e:	f423 7340 	bic.w	r3, r3, #768	; 0x300
 8003462:	4313      	orrs	r3, r2
 8003464:	6223      	str	r3, [r4, #32]
 8003466:	b11e      	cbz	r6, 8003470 <HAL_RCCEx_PeriphCLKConfig+0x50>
 8003468:	69e3      	ldr	r3, [r4, #28]
 800346a:	f023 5380 	bic.w	r3, r3, #268435456	; 0x10000000
 800346e:	61e3      	str	r3, [r4, #28]
 8003470:	6828      	ldr	r0, [r5, #0]
 8003472:	0783      	lsls	r3, r0, #30
 8003474:	d506      	bpl.n	8003484 <HAL_RCCEx_PeriphCLKConfig+0x64>
 8003476:	4924      	ldr	r1, [pc, #144]	; (8003508 <HAL_RCCEx_PeriphCLKConfig+0xe8>)
 8003478:	68ab      	ldr	r3, [r5, #8]
 800347a:	684a      	ldr	r2, [r1, #4]
 800347c:	f422 4240 	bic.w	r2, r2, #49152	; 0xc000
 8003480:	431a      	orrs	r2, r3
 8003482:	604a      	str	r2, [r1, #4]
 8003484:	f010 0010 	ands.w	r0, r0, #16
 8003488:	d01b      	beq.n	80034c2 <HAL_RCCEx_PeriphCLKConfig+0xa2>
 800348a:	4a1f      	ldr	r2, [pc, #124]	; (8003508 <HAL_RCCEx_PeriphCLKConfig+0xe8>)
 800348c:	68e9      	ldr	r1, [r5, #12]
 800348e:	6853      	ldr	r3, [r2, #4]
 8003490:	2000      	movs	r0, #0
 8003492:	f423 0380 	bic.w	r3, r3, #4194304	; 0x400000
 8003496:	430b      	orrs	r3, r1
 8003498:	6053      	str	r3, [r2, #4]
 800349a:	e012      	b.n	80034c2 <HAL_RCCEx_PeriphCLKConfig+0xa2>
 800349c:	2600      	movs	r6, #0
 800349e:	e7d3      	b.n	8003448 <HAL_RCCEx_PeriphCLKConfig+0x28>
 80034a0:	683b      	ldr	r3, [r7, #0]
 80034a2:	f443 7380 	orr.w	r3, r3, #256	; 0x100
 80034a6:	603b      	str	r3, [r7, #0]
 80034a8:	f7fe fbce 	bl	8001c48 <HAL_GetTick>
 80034ac:	4680      	mov	r8, r0
 80034ae:	683b      	ldr	r3, [r7, #0]
 80034b0:	05d8      	lsls	r0, r3, #23
 80034b2:	d4cd      	bmi.n	8003450 <HAL_RCCEx_PeriphCLKConfig+0x30>
 80034b4:	f7fe fbc8 	bl	8001c48 <HAL_GetTick>
 80034b8:	eba0 0008 	sub.w	r0, r0, r8
 80034bc:	2864      	cmp	r0, #100	; 0x64
 80034be:	d9f6      	bls.n	80034ae <HAL_RCCEx_PeriphCLKConfig+0x8e>
 80034c0:	2003      	movs	r0, #3
 80034c2:	b002      	add	sp, #8
 80034c4:	e8bd 81f0 	ldmia.w	sp!, {r4, r5, r6, r7, r8, pc}
 80034c8:	f402 7240 	and.w	r2, r2, #768	; 0x300
 80034cc:	429a      	cmp	r2, r3
 80034ce:	d0c4      	beq.n	800345a <HAL_RCCEx_PeriphCLKConfig+0x3a>
 80034d0:	2001      	movs	r0, #1
 80034d2:	4a0f      	ldr	r2, [pc, #60]	; (8003510 <HAL_RCCEx_PeriphCLKConfig+0xf0>)
 80034d4:	6a23      	ldr	r3, [r4, #32]
 80034d6:	f8c2 0440 	str.w	r0, [r2, #1088]	; 0x440
 80034da:	2000      	movs	r0, #0
 80034dc:	f423 7140 	bic.w	r1, r3, #768	; 0x300
 80034e0:	f8c2 0440 	str.w	r0, [r2, #1088]	; 0x440
 80034e4:	6221      	str	r1, [r4, #32]
 80034e6:	07d9      	lsls	r1, r3, #31
 80034e8:	d5b7      	bpl.n	800345a <HAL_RCCEx_PeriphCLKConfig+0x3a>
 80034ea:	f7fe fbad 	bl	8001c48 <HAL_GetTick>
 80034ee:	f241 3888 	movw	r8, #5000	; 0x1388
 80034f2:	4607      	mov	r7, r0
 80034f4:	6a23      	ldr	r3, [r4, #32]
 80034f6:	079a      	lsls	r2, r3, #30
 80034f8:	d4af      	bmi.n	800345a <HAL_RCCEx_PeriphCLKConfig+0x3a>
 80034fa:	f7fe fba5 	bl	8001c48 <HAL_GetTick>
 80034fe:	1bc0      	subs	r0, r0, r7
 8003500:	4540      	cmp	r0, r8
 8003502:	d9f7      	bls.n	80034f4 <HAL_RCCEx_PeriphCLKConfig+0xd4>
 8003504:	e7dc      	b.n	80034c0 <HAL_RCCEx_PeriphCLKConfig+0xa0>
 8003506:	bf00      	nop
 8003508:	40021000 	.word	0x40021000
 800350c:	40007000 	.word	0x40007000
 8003510:	42420000 	.word	0x42420000

08003514 <UART_SetConfig>:
 8003514:	b510      	push	{r4, lr}
 8003516:	4604      	mov	r4, r0
 8003518:	6803      	ldr	r3, [r0, #0]
 800351a:	68c1      	ldr	r1, [r0, #12]
 800351c:	691a      	ldr	r2, [r3, #16]
 800351e:	f422 5240 	bic.w	r2, r2, #12288	; 0x3000
 8003522:	430a      	orrs	r2, r1
 8003524:	611a      	str	r2, [r3, #16]
 8003526:	6882      	ldr	r2, [r0, #8]
 8003528:	6900      	ldr	r0, [r0, #16]
 800352a:	68d9      	ldr	r1, [r3, #12]
 800352c:	4302      	orrs	r2, r0
 800352e:	6960      	ldr	r0, [r4, #20]
 8003530:	f421 51b0 	bic.w	r1, r1, #5632	; 0x1600
 8003534:	f021 010c 	bic.w	r1, r1, #12
 8003538:	4302      	orrs	r2, r0
 800353a:	430a      	orrs	r2, r1
 800353c:	60da      	str	r2, [r3, #12]
 800353e:	695a      	ldr	r2, [r3, #20]
 8003540:	69a1      	ldr	r1, [r4, #24]
 8003542:	f422 7240 	bic.w	r2, r2, #768	; 0x300
 8003546:	430a      	orrs	r2, r1
 8003548:	615a      	str	r2, [r3, #20]
 800354a:	4a0e      	ldr	r2, [pc, #56]	; (8003584 <UART_SetConfig+0x70>)
 800354c:	4293      	cmp	r3, r2
 800354e:	d115      	bne.n	800357c <UART_SetConfig+0x68>
 8003550:	f7ff ff56 	bl	8003400 <HAL_RCC_GetPCLK2Freq>
 8003554:	2319      	movs	r3, #25
 8003556:	4343      	muls	r3, r0
 8003558:	6862      	ldr	r2, [r4, #4]
 800355a:	6820      	ldr	r0, [r4, #0]
 800355c:	0092      	lsls	r2, r2, #2
 800355e:	fbb3 f3f2 	udiv	r3, r3, r2
 8003562:	2264      	movs	r2, #100	; 0x64
 8003564:	fbb3 f1f2 	udiv	r1, r3, r2
 8003568:	fb02 3311 	mls	r3, r2, r1, r3
 800356c:	011b      	lsls	r3, r3, #4
 800356e:	3332      	adds	r3, #50	; 0x32
 8003570:	fbb3 f3f2 	udiv	r3, r3, r2
 8003574:	eb03 1301 	add.w	r3, r3, r1, lsl #4
 8003578:	6083      	str	r3, [r0, #8]
 800357a:	bd10      	pop	{r4, pc}
 800357c:	f7ff ff30 	bl	80033e0 <HAL_RCC_GetPCLK1Freq>
 8003580:	e7e8      	b.n	8003554 <UART_SetConfig+0x40>
 8003582:	bf00      	nop
 8003584:	40013800 	.word	0x40013800

08003588 <UART_WaitOnFlagUntilTimeout.constprop.0>:
 8003588:	b5f8      	push	{r3, r4, r5, r6, r7, lr}
 800358a:	4604      	mov	r4, r0
 800358c:	460e      	mov	r6, r1
 800358e:	4617      	mov	r7, r2
 8003590:	461d      	mov	r5, r3
 8003592:	6822      	ldr	r2, [r4, #0]
 8003594:	6813      	ldr	r3, [r2, #0]
 8003596:	ea36 0303 	bics.w	r3, r6, r3
 800359a:	d101      	bne.n	80035a0 <UART_WaitOnFlagUntilTimeout.constprop.0+0x18>
 800359c:	2000      	movs	r0, #0
 800359e:	e028      	b.n	80035f2 <UART_WaitOnFlagUntilTimeout.constprop.0+0x6a>
 80035a0:	1c6b      	adds	r3, r5, #1
 80035a2:	d0f7      	beq.n	8003594 <UART_WaitOnFlagUntilTimeout.constprop.0+0xc>
 80035a4:	b125      	cbz	r5, 80035b0 <UART_WaitOnFlagUntilTimeout.constprop.0+0x28>
 80035a6:	f7fe fb4f 	bl	8001c48 <HAL_GetTick>
 80035aa:	1bc0      	subs	r0, r0, r7
 80035ac:	4285      	cmp	r5, r0
 80035ae:	d2f0      	bcs.n	8003592 <UART_WaitOnFlagUntilTimeout.constprop.0+0xa>
 80035b0:	6822      	ldr	r2, [r4, #0]
 80035b2:	f102 030c 	add.w	r3, r2, #12
 80035b6:	e853 3f00 	ldrex	r3, [r3]
 80035ba:	f423 73d0 	bic.w	r3, r3, #416	; 0x1a0
 80035be:	320c      	adds	r2, #12
 80035c0:	e842 3000 	strex	r0, r3, [r2]
 80035c4:	6821      	ldr	r1, [r4, #0]
 80035c6:	2800      	cmp	r0, #0
 80035c8:	d1f2      	bne.n	80035b0 <UART_WaitOnFlagUntilTimeout.constprop.0+0x28>
 80035ca:	f101 0314 	add.w	r3, r1, #20
 80035ce:	e853 3f00 	ldrex	r3, [r3]
 80035d2:	f023 0301 	bic.w	r3, r3, #1
 80035d6:	f101 0014 	add.w	r0, r1, #20
 80035da:	e840 3200 	strex	r2, r3, [r0]
 80035de:	2a00      	cmp	r2, #0
 80035e0:	d1f3      	bne.n	80035ca <UART_WaitOnFlagUntilTimeout.constprop.0+0x42>
 80035e2:	2320      	movs	r3, #32
 80035e4:	2003      	movs	r0, #3
 80035e6:	f884 3041 	strb.w	r3, [r4, #65]	; 0x41
 80035ea:	f884 2040 	strb.w	r2, [r4, #64]	; 0x40
 80035ee:	f884 3042 	strb.w	r3, [r4, #66]	; 0x42
 80035f2:	bdf8      	pop	{r3, r4, r5, r6, r7, pc}

080035f4 <HAL_UART_Init>:
 80035f4:	b510      	push	{r4, lr}
 80035f6:	4604      	mov	r4, r0
 80035f8:	b348      	cbz	r0, 800364e <HAL_UART_Init+0x5a>
 80035fa:	f890 3041 	ldrb.w	r3, [r0, #65]	; 0x41
 80035fe:	f003 02ff 	and.w	r2, r3, #255	; 0xff
 8003602:	b91b      	cbnz	r3, 800360c <HAL_UART_Init+0x18>
 8003604:	f880 2040 	strb.w	r2, [r0, #64]	; 0x40
 8003608:	f7fe f9ea 	bl	80019e0 <HAL_UART_MspInit>
 800360c:	2324      	movs	r3, #36	; 0x24
 800360e:	6822      	ldr	r2, [r4, #0]
 8003610:	f884 3041 	strb.w	r3, [r4, #65]	; 0x41
 8003614:	68d3      	ldr	r3, [r2, #12]
 8003616:	4620      	mov	r0, r4
 8003618:	f423 5300 	bic.w	r3, r3, #8192	; 0x2000
 800361c:	60d3      	str	r3, [r2, #12]
 800361e:	f7ff ff79 	bl	8003514 <UART_SetConfig>
 8003622:	6823      	ldr	r3, [r4, #0]
 8003624:	2000      	movs	r0, #0
 8003626:	691a      	ldr	r2, [r3, #16]
 8003628:	f422 4290 	bic.w	r2, r2, #18432	; 0x4800
 800362c:	611a      	str	r2, [r3, #16]
 800362e:	695a      	ldr	r2, [r3, #20]
 8003630:	f022 022a 	bic.w	r2, r2, #42	; 0x2a
 8003634:	615a      	str	r2, [r3, #20]
 8003636:	68da      	ldr	r2, [r3, #12]
 8003638:	f442 5200 	orr.w	r2, r2, #8192	; 0x2000
 800363c:	60da      	str	r2, [r3, #12]
 800363e:	2320      	movs	r3, #32
 8003640:	6460      	str	r0, [r4, #68]	; 0x44
 8003642:	f884 3041 	strb.w	r3, [r4, #65]	; 0x41
 8003646:	f884 3042 	strb.w	r3, [r4, #66]	; 0x42
 800364a:	6360      	str	r0, [r4, #52]	; 0x34
 800364c:	bd10      	pop	{r4, pc}
 800364e:	2001      	movs	r0, #1
 8003650:	e7fc      	b.n	800364c <HAL_UART_Init+0x58>

08003652 <HAL_UART_Transmit>:
 8003652:	e92d 43f8 	stmdb	sp!, {r3, r4, r5, r6, r7, r8, r9, lr}
 8003656:	4699      	mov	r9, r3
 8003658:	f890 3041 	ldrb.w	r3, [r0, #65]	; 0x41
 800365c:	4604      	mov	r4, r0
 800365e:	2b20      	cmp	r3, #32
 8003660:	460e      	mov	r6, r1
 8003662:	4617      	mov	r7, r2
 8003664:	d13c      	bne.n	80036e0 <HAL_UART_Transmit+0x8e>
 8003666:	2900      	cmp	r1, #0
 8003668:	d03c      	beq.n	80036e4 <HAL_UART_Transmit+0x92>
 800366a:	2a00      	cmp	r2, #0
 800366c:	d03a      	beq.n	80036e4 <HAL_UART_Transmit+0x92>
 800366e:	2321      	movs	r3, #33	; 0x21
 8003670:	2500      	movs	r5, #0
 8003672:	6445      	str	r5, [r0, #68]	; 0x44
 8003674:	f880 3041 	strb.w	r3, [r0, #65]	; 0x41
 8003678:	f7fe fae6 	bl	8001c48 <HAL_GetTick>
 800367c:	68a3      	ldr	r3, [r4, #8]
 800367e:	4680      	mov	r8, r0
 8003680:	f5b3 5f80 	cmp.w	r3, #4096	; 0x1000
 8003684:	84a7      	strh	r7, [r4, #36]	; 0x24
 8003686:	84e7      	strh	r7, [r4, #38]	; 0x26
 8003688:	d103      	bne.n	8003692 <HAL_UART_Transmit+0x40>
 800368a:	6923      	ldr	r3, [r4, #16]
 800368c:	b90b      	cbnz	r3, 8003692 <HAL_UART_Transmit+0x40>
 800368e:	4635      	mov	r5, r6
 8003690:	461e      	mov	r6, r3
 8003692:	8ce3      	ldrh	r3, [r4, #38]	; 0x26
 8003694:	b29b      	uxth	r3, r3
 8003696:	b953      	cbnz	r3, 80036ae <HAL_UART_Transmit+0x5c>
 8003698:	464b      	mov	r3, r9
 800369a:	4642      	mov	r2, r8
 800369c:	2140      	movs	r1, #64	; 0x40
 800369e:	4620      	mov	r0, r4
 80036a0:	f7ff ff72 	bl	8003588 <UART_WaitOnFlagUntilTimeout.constprop.0>
 80036a4:	b950      	cbnz	r0, 80036bc <HAL_UART_Transmit+0x6a>
 80036a6:	2320      	movs	r3, #32
 80036a8:	f884 3041 	strb.w	r3, [r4, #65]	; 0x41
 80036ac:	e007      	b.n	80036be <HAL_UART_Transmit+0x6c>
 80036ae:	464b      	mov	r3, r9
 80036b0:	4642      	mov	r2, r8
 80036b2:	2180      	movs	r1, #128	; 0x80
 80036b4:	4620      	mov	r0, r4
 80036b6:	f7ff ff67 	bl	8003588 <UART_WaitOnFlagUntilTimeout.constprop.0>
 80036ba:	b110      	cbz	r0, 80036c2 <HAL_UART_Transmit+0x70>
 80036bc:	2003      	movs	r0, #3
 80036be:	e8bd 83f8 	ldmia.w	sp!, {r3, r4, r5, r6, r7, r8, r9, pc}
 80036c2:	6822      	ldr	r2, [r4, #0]
 80036c4:	b94e      	cbnz	r6, 80036da <HAL_UART_Transmit+0x88>
 80036c6:	f835 3b02 	ldrh.w	r3, [r5], #2
 80036ca:	f3c3 0308 	ubfx	r3, r3, #0, #9
 80036ce:	6053      	str	r3, [r2, #4]
 80036d0:	8ce1      	ldrh	r1, [r4, #38]	; 0x26
 80036d2:	3901      	subs	r1, #1
 80036d4:	b289      	uxth	r1, r1
 80036d6:	84e1      	strh	r1, [r4, #38]	; 0x26
 80036d8:	e7db      	b.n	8003692 <HAL_UART_Transmit+0x40>
 80036da:	f816 3b01 	ldrb.w	r3, [r6], #1
 80036de:	e7f6      	b.n	80036ce <HAL_UART_Transmit+0x7c>
 80036e0:	2002      	movs	r0, #2
 80036e2:	e7ec      	b.n	80036be <HAL_UART_Transmit+0x6c>
 80036e4:	2001      	movs	r0, #1
 80036e6:	e7ea      	b.n	80036be <HAL_UART_Transmit+0x6c>

080036e8 <std>:
 80036e8:	2300      	movs	r3, #0
 80036ea:	b510      	push	{r4, lr}
 80036ec:	4604      	mov	r4, r0
 80036ee:	e9c0 3300 	strd	r3, r3, [r0]
 80036f2:	e9c0 3304 	strd	r3, r3, [r0, #16]
 80036f6:	6083      	str	r3, [r0, #8]
 80036f8:	8181      	strh	r1, [r0, #12]
 80036fa:	6643      	str	r3, [r0, #100]	; 0x64
 80036fc:	81c2      	strh	r2, [r0, #14]
 80036fe:	6183      	str	r3, [r0, #24]
 8003700:	4619      	mov	r1, r3
 8003702:	2208      	movs	r2, #8
 8003704:	305c      	adds	r0, #92	; 0x5c
 8003706:	f000 f9f7 	bl	8003af8 <memset>
 800370a:	4b0d      	ldr	r3, [pc, #52]	; (8003740 <std+0x58>)
 800370c:	6224      	str	r4, [r4, #32]
 800370e:	6263      	str	r3, [r4, #36]	; 0x24
 8003710:	4b0c      	ldr	r3, [pc, #48]	; (8003744 <std+0x5c>)
 8003712:	62a3      	str	r3, [r4, #40]	; 0x28
 8003714:	4b0c      	ldr	r3, [pc, #48]	; (8003748 <std+0x60>)
 8003716:	62e3      	str	r3, [r4, #44]	; 0x2c
 8003718:	4b0c      	ldr	r3, [pc, #48]	; (800374c <std+0x64>)
 800371a:	6323      	str	r3, [r4, #48]	; 0x30
 800371c:	4b0c      	ldr	r3, [pc, #48]	; (8003750 <std+0x68>)
 800371e:	429c      	cmp	r4, r3
 8003720:	d006      	beq.n	8003730 <std+0x48>
 8003722:	f103 0268 	add.w	r2, r3, #104	; 0x68
 8003726:	4294      	cmp	r4, r2
 8003728:	d002      	beq.n	8003730 <std+0x48>
 800372a:	33d0      	adds	r3, #208	; 0xd0
 800372c:	429c      	cmp	r4, r3
 800372e:	d105      	bne.n	800373c <std+0x54>
 8003730:	f104 0058 	add.w	r0, r4, #88	; 0x58
 8003734:	e8bd 4010 	ldmia.w	sp!, {r4, lr}
 8003738:	f000 ba56 	b.w	8003be8 <__retarget_lock_init_recursive>
 800373c:	bd10      	pop	{r4, pc}
 800373e:	bf00      	nop
 8003740:	08003949 	.word	0x08003949
 8003744:	0800396b 	.word	0x0800396b
 8003748:	080039a3 	.word	0x080039a3
 800374c:	080039c7 	.word	0x080039c7
 8003750:	20000258 	.word	0x20000258

08003754 <stdio_exit_handler>:
 8003754:	4a02      	ldr	r2, [pc, #8]	; (8003760 <stdio_exit_handler+0xc>)
 8003756:	4903      	ldr	r1, [pc, #12]	; (8003764 <stdio_exit_handler+0x10>)
 8003758:	4803      	ldr	r0, [pc, #12]	; (8003768 <stdio_exit_handler+0x14>)
 800375a:	f000 b869 	b.w	8003830 <_fwalk_sglue>
 800375e:	bf00      	nop
 8003760:	20000010 	.word	0x20000010
 8003764:	080044a5 	.word	0x080044a5
 8003768:	2000001c 	.word	0x2000001c

0800376c <cleanup_stdio>:
 800376c:	6841      	ldr	r1, [r0, #4]
 800376e:	4b0c      	ldr	r3, [pc, #48]	; (80037a0 <cleanup_stdio+0x34>)
 8003770:	b510      	push	{r4, lr}
 8003772:	4299      	cmp	r1, r3
 8003774:	4604      	mov	r4, r0
 8003776:	d001      	beq.n	800377c <cleanup_stdio+0x10>
 8003778:	f000 fe94 	bl	80044a4 <_fflush_r>
 800377c:	68a1      	ldr	r1, [r4, #8]
 800377e:	4b09      	ldr	r3, [pc, #36]	; (80037a4 <cleanup_stdio+0x38>)
 8003780:	4299      	cmp	r1, r3
 8003782:	d002      	beq.n	800378a <cleanup_stdio+0x1e>
 8003784:	4620      	mov	r0, r4
 8003786:	f000 fe8d 	bl	80044a4 <_fflush_r>
 800378a:	68e1      	ldr	r1, [r4, #12]
 800378c:	4b06      	ldr	r3, [pc, #24]	; (80037a8 <cleanup_stdio+0x3c>)
 800378e:	4299      	cmp	r1, r3
 8003790:	d004      	beq.n	800379c <cleanup_stdio+0x30>
 8003792:	4620      	mov	r0, r4
 8003794:	e8bd 4010 	ldmia.w	sp!, {r4, lr}
 8003798:	f000 be84 	b.w	80044a4 <_fflush_r>
 800379c:	bd10      	pop	{r4, pc}
 800379e:	bf00      	nop
 80037a0:	20000258 	.word	0x20000258
 80037a4:	200002c0 	.word	0x200002c0
 80037a8:	20000328 	.word	0x20000328

080037ac <global_stdio_init.part.0>:
 80037ac:	b510      	push	{r4, lr}
 80037ae:	4b0b      	ldr	r3, [pc, #44]	; (80037dc <global_stdio_init.part.0+0x30>)
 80037b0:	4c0b      	ldr	r4, [pc, #44]	; (80037e0 <global_stdio_init.part.0+0x34>)
 80037b2:	4a0c      	ldr	r2, [pc, #48]	; (80037e4 <global_stdio_init.part.0+0x38>)
 80037b4:	4620      	mov	r0, r4
 80037b6:	601a      	str	r2, [r3, #0]
 80037b8:	2104      	movs	r1, #4
 80037ba:	2200      	movs	r2, #0
 80037bc:	f7ff ff94 	bl	80036e8 <std>
 80037c0:	f104 0068 	add.w	r0, r4, #104	; 0x68
 80037c4:	2201      	movs	r2, #1
 80037c6:	2109      	movs	r1, #9
 80037c8:	f7ff ff8e 	bl	80036e8 <std>
 80037cc:	f104 00d0 	add.w	r0, r4, #208	; 0xd0
 80037d0:	2202      	movs	r2, #2
 80037d2:	e8bd 4010 	ldmia.w	sp!, {r4, lr}
 80037d6:	2112      	movs	r1, #18
 80037d8:	f7ff bf86 	b.w	80036e8 <std>
 80037dc:	20000390 	.word	0x20000390
 80037e0:	20000258 	.word	0x20000258
 80037e4:	08003755 	.word	0x08003755

080037e8 <__sfp_lock_acquire>:
 80037e8:	4801      	ldr	r0, [pc, #4]	; (80037f0 <__sfp_lock_acquire+0x8>)
 80037ea:	f000 b9fe 	b.w	8003bea <__retarget_lock_acquire_recursive>
 80037ee:	bf00      	nop
 80037f0:	20000399 	.word	0x20000399

080037f4 <__sfp_lock_release>:
 80037f4:	4801      	ldr	r0, [pc, #4]	; (80037fc <__sfp_lock_release+0x8>)
 80037f6:	f000 b9f9 	b.w	8003bec <__retarget_lock_release_recursive>
 80037fa:	bf00      	nop
 80037fc:	20000399 	.word	0x20000399

08003800 <__sinit>:
 8003800:	b510      	push	{r4, lr}
 8003802:	4604      	mov	r4, r0
 8003804:	f7ff fff0 	bl	80037e8 <__sfp_lock_acquire>
 8003808:	6a23      	ldr	r3, [r4, #32]
 800380a:	b11b      	cbz	r3, 8003814 <__sinit+0x14>
 800380c:	e8bd 4010 	ldmia.w	sp!, {r4, lr}
 8003810:	f7ff bff0 	b.w	80037f4 <__sfp_lock_release>
 8003814:	4b04      	ldr	r3, [pc, #16]	; (8003828 <__sinit+0x28>)
 8003816:	6223      	str	r3, [r4, #32]
 8003818:	4b04      	ldr	r3, [pc, #16]	; (800382c <__sinit+0x2c>)
 800381a:	681b      	ldr	r3, [r3, #0]
 800381c:	2b00      	cmp	r3, #0
 800381e:	d1f5      	bne.n	800380c <__sinit+0xc>
 8003820:	f7ff ffc4 	bl	80037ac <global_stdio_init.part.0>
 8003824:	e7f2      	b.n	800380c <__sinit+0xc>
 8003826:	bf00      	nop
 8003828:	0800376d 	.word	0x0800376d
 800382c:	20000390 	.word	0x20000390

08003830 <_fwalk_sglue>:
 8003830:	e92d 43f8 	stmdb	sp!, {r3, r4, r5, r6, r7, r8, r9, lr}
 8003834:	4607      	mov	r7, r0
 8003836:	4688      	mov	r8, r1
 8003838:	4614      	mov	r4, r2
 800383a:	2600      	movs	r6, #0
 800383c:	e9d4 9501 	ldrd	r9, r5, [r4, #4]
 8003840:	f1b9 0901 	subs.w	r9, r9, #1
 8003844:	d505      	bpl.n	8003852 <_fwalk_sglue+0x22>
 8003846:	6824      	ldr	r4, [r4, #0]
 8003848:	2c00      	cmp	r4, #0
 800384a:	d1f7      	bne.n	800383c <_fwalk_sglue+0xc>
 800384c:	4630      	mov	r0, r6
 800384e:	e8bd 83f8 	ldmia.w	sp!, {r3, r4, r5, r6, r7, r8, r9, pc}
 8003852:	89ab      	ldrh	r3, [r5, #12]
 8003854:	2b01      	cmp	r3, #1
 8003856:	d907      	bls.n	8003868 <_fwalk_sglue+0x38>
 8003858:	f9b5 300e 	ldrsh.w	r3, [r5, #14]
 800385c:	3301      	adds	r3, #1
 800385e:	d003      	beq.n	8003868 <_fwalk_sglue+0x38>
 8003860:	4629      	mov	r1, r5
 8003862:	4638      	mov	r0, r7
 8003864:	47c0      	blx	r8
 8003866:	4306      	orrs	r6, r0
 8003868:	3568      	adds	r5, #104	; 0x68
 800386a:	e7e9      	b.n	8003840 <_fwalk_sglue+0x10>

0800386c <iprintf>:
 800386c:	b40f      	push	{r0, r1, r2, r3}
 800386e:	b507      	push	{r0, r1, r2, lr}
 8003870:	4906      	ldr	r1, [pc, #24]	; (800388c <iprintf+0x20>)
 8003872:	ab04      	add	r3, sp, #16
 8003874:	6808      	ldr	r0, [r1, #0]
 8003876:	f853 2b04 	ldr.w	r2, [r3], #4
 800387a:	6881      	ldr	r1, [r0, #8]
 800387c:	9301      	str	r3, [sp, #4]
 800387e:	f000 fae1 	bl	8003e44 <_vfiprintf_r>
 8003882:	b003      	add	sp, #12
 8003884:	f85d eb04 	ldr.w	lr, [sp], #4
 8003888:	b004      	add	sp, #16
 800388a:	4770      	bx	lr
 800388c:	20000068 	.word	0x20000068

08003890 <_puts_r>:
 8003890:	6a03      	ldr	r3, [r0, #32]
 8003892:	b570      	push	{r4, r5, r6, lr}
 8003894:	4605      	mov	r5, r0
 8003896:	460e      	mov	r6, r1
 8003898:	6884      	ldr	r4, [r0, #8]
 800389a:	b90b      	cbnz	r3, 80038a0 <_puts_r+0x10>
 800389c:	f7ff ffb0 	bl	8003800 <__sinit>
 80038a0:	6e63      	ldr	r3, [r4, #100]	; 0x64
 80038a2:	07db      	lsls	r3, r3, #31
 80038a4:	d405      	bmi.n	80038b2 <_puts_r+0x22>
 80038a6:	89a3      	ldrh	r3, [r4, #12]
 80038a8:	0598      	lsls	r0, r3, #22
 80038aa:	d402      	bmi.n	80038b2 <_puts_r+0x22>
 80038ac:	6da0      	ldr	r0, [r4, #88]	; 0x58
 80038ae:	f000 f99c 	bl	8003bea <__retarget_lock_acquire_recursive>
 80038b2:	89a3      	ldrh	r3, [r4, #12]
 80038b4:	0719      	lsls	r1, r3, #28
 80038b6:	d513      	bpl.n	80038e0 <_puts_r+0x50>
 80038b8:	6923      	ldr	r3, [r4, #16]
 80038ba:	b18b      	cbz	r3, 80038e0 <_puts_r+0x50>
 80038bc:	3e01      	subs	r6, #1
 80038be:	68a3      	ldr	r3, [r4, #8]
 80038c0:	f816 1f01 	ldrb.w	r1, [r6, #1]!
 80038c4:	3b01      	subs	r3, #1
 80038c6:	60a3      	str	r3, [r4, #8]
 80038c8:	b9e9      	cbnz	r1, 8003906 <_puts_r+0x76>
 80038ca:	2b00      	cmp	r3, #0
 80038cc:	da2e      	bge.n	800392c <_puts_r+0x9c>
 80038ce:	4622      	mov	r2, r4
 80038d0:	210a      	movs	r1, #10
 80038d2:	4628      	mov	r0, r5
 80038d4:	f000 f87b 	bl	80039ce <__swbuf_r>
 80038d8:	3001      	adds	r0, #1
 80038da:	d007      	beq.n	80038ec <_puts_r+0x5c>
 80038dc:	250a      	movs	r5, #10
 80038de:	e007      	b.n	80038f0 <_puts_r+0x60>
 80038e0:	4621      	mov	r1, r4
 80038e2:	4628      	mov	r0, r5
 80038e4:	f000 f8b0 	bl	8003a48 <__swsetup_r>
 80038e8:	2800      	cmp	r0, #0
 80038ea:	d0e7      	beq.n	80038bc <_puts_r+0x2c>
 80038ec:	f04f 35ff 	mov.w	r5, #4294967295
 80038f0:	6e63      	ldr	r3, [r4, #100]	; 0x64
 80038f2:	07da      	lsls	r2, r3, #31
 80038f4:	d405      	bmi.n	8003902 <_puts_r+0x72>
 80038f6:	89a3      	ldrh	r3, [r4, #12]
 80038f8:	059b      	lsls	r3, r3, #22
 80038fa:	d402      	bmi.n	8003902 <_puts_r+0x72>
 80038fc:	6da0      	ldr	r0, [r4, #88]	; 0x58
 80038fe:	f000 f975 	bl	8003bec <__retarget_lock_release_recursive>
 8003902:	4628      	mov	r0, r5
 8003904:	bd70      	pop	{r4, r5, r6, pc}
 8003906:	2b00      	cmp	r3, #0
 8003908:	da04      	bge.n	8003914 <_puts_r+0x84>
 800390a:	69a2      	ldr	r2, [r4, #24]
 800390c:	429a      	cmp	r2, r3
 800390e:	dc06      	bgt.n	800391e <_puts_r+0x8e>
 8003910:	290a      	cmp	r1, #10
 8003912:	d004      	beq.n	800391e <_puts_r+0x8e>
 8003914:	6823      	ldr	r3, [r4, #0]
 8003916:	1c5a      	adds	r2, r3, #1
 8003918:	6022      	str	r2, [r4, #0]
 800391a:	7019      	strb	r1, [r3, #0]
 800391c:	e7cf      	b.n	80038be <_puts_r+0x2e>
 800391e:	4622      	mov	r2, r4
 8003920:	4628      	mov	r0, r5
 8003922:	f000 f854 	bl	80039ce <__swbuf_r>
 8003926:	3001      	adds	r0, #1
 8003928:	d1c9      	bne.n	80038be <_puts_r+0x2e>
 800392a:	e7df      	b.n	80038ec <_puts_r+0x5c>
 800392c:	250a      	movs	r5, #10
 800392e:	6823      	ldr	r3, [r4, #0]
 8003930:	1c5a      	adds	r2, r3, #1
 8003932:	6022      	str	r2, [r4, #0]
 8003934:	701d      	strb	r5, [r3, #0]
 8003936:	e7db      	b.n	80038f0 <_puts_r+0x60>

08003938 <puts>:
 8003938:	4b02      	ldr	r3, [pc, #8]	; (8003944 <puts+0xc>)
 800393a:	4601      	mov	r1, r0
 800393c:	6818      	ldr	r0, [r3, #0]
 800393e:	f7ff bfa7 	b.w	8003890 <_puts_r>
 8003942:	bf00      	nop
 8003944:	20000068 	.word	0x20000068

08003948 <__sread>:
 8003948:	b510      	push	{r4, lr}
 800394a:	460c      	mov	r4, r1
 800394c:	f9b1 100e 	ldrsh.w	r1, [r1, #14]
 8003950:	f000 f8fc 	bl	8003b4c <_read_r>
 8003954:	2800      	cmp	r0, #0
 8003956:	bfab      	itete	ge
 8003958:	6d63      	ldrge	r3, [r4, #84]	; 0x54
 800395a:	89a3      	ldrhlt	r3, [r4, #12]
 800395c:	181b      	addge	r3, r3, r0
 800395e:	f423 5380 	biclt.w	r3, r3, #4096	; 0x1000
 8003962:	bfac      	ite	ge
 8003964:	6563      	strge	r3, [r4, #84]	; 0x54
 8003966:	81a3      	strhlt	r3, [r4, #12]
 8003968:	bd10      	pop	{r4, pc}

0800396a <__swrite>:
 800396a:	e92d 41f0 	stmdb	sp!, {r4, r5, r6, r7, r8, lr}
 800396e:	461f      	mov	r7, r3
 8003970:	898b      	ldrh	r3, [r1, #12]
 8003972:	4605      	mov	r5, r0
 8003974:	05db      	lsls	r3, r3, #23
 8003976:	460c      	mov	r4, r1
 8003978:	4616      	mov	r6, r2
 800397a:	d505      	bpl.n	8003988 <__swrite+0x1e>
 800397c:	2302      	movs	r3, #2
 800397e:	2200      	movs	r2, #0
 8003980:	f9b1 100e 	ldrsh.w	r1, [r1, #14]
 8003984:	f000 f8d0 	bl	8003b28 <_lseek_r>
 8003988:	89a3      	ldrh	r3, [r4, #12]
 800398a:	4632      	mov	r2, r6
 800398c:	f423 5380 	bic.w	r3, r3, #4096	; 0x1000
 8003990:	81a3      	strh	r3, [r4, #12]
 8003992:	4628      	mov	r0, r5
 8003994:	463b      	mov	r3, r7
 8003996:	f9b4 100e 	ldrsh.w	r1, [r4, #14]
 800399a:	e8bd 41f0 	ldmia.w	sp!, {r4, r5, r6, r7, r8, lr}
 800399e:	f000 b8e7 	b.w	8003b70 <_write_r>

080039a2 <__sseek>:
 80039a2:	b510      	push	{r4, lr}
 80039a4:	460c      	mov	r4, r1
 80039a6:	f9b1 100e 	ldrsh.w	r1, [r1, #14]
 80039aa:	f000 f8bd 	bl	8003b28 <_lseek_r>
 80039ae:	1c43      	adds	r3, r0, #1
 80039b0:	89a3      	ldrh	r3, [r4, #12]
 80039b2:	bf15      	itete	ne
 80039b4:	6560      	strne	r0, [r4, #84]	; 0x54
 80039b6:	f423 5380 	biceq.w	r3, r3, #4096	; 0x1000
 80039ba:	f443 5380 	orrne.w	r3, r3, #4096	; 0x1000
 80039be:	81a3      	strheq	r3, [r4, #12]
 80039c0:	bf18      	it	ne
 80039c2:	81a3      	strhne	r3, [r4, #12]
 80039c4:	bd10      	pop	{r4, pc}

080039c6 <__sclose>:
 80039c6:	f9b1 100e 	ldrsh.w	r1, [r1, #14]
 80039ca:	f000 b89d 	b.w	8003b08 <_close_r>

080039ce <__swbuf_r>:
 80039ce:	b5f8      	push	{r3, r4, r5, r6, r7, lr}
 80039d0:	460e      	mov	r6, r1
 80039d2:	4614      	mov	r4, r2
 80039d4:	4605      	mov	r5, r0
 80039d6:	b118      	cbz	r0, 80039e0 <__swbuf_r+0x12>
 80039d8:	6a03      	ldr	r3, [r0, #32]
 80039da:	b90b      	cbnz	r3, 80039e0 <__swbuf_r+0x12>
 80039dc:	f7ff ff10 	bl	8003800 <__sinit>
 80039e0:	69a3      	ldr	r3, [r4, #24]
 80039e2:	60a3      	str	r3, [r4, #8]
 80039e4:	89a3      	ldrh	r3, [r4, #12]
 80039e6:	071a      	lsls	r2, r3, #28
 80039e8:	d525      	bpl.n	8003a36 <__swbuf_r+0x68>
 80039ea:	6923      	ldr	r3, [r4, #16]
 80039ec:	b31b      	cbz	r3, 8003a36 <__swbuf_r+0x68>
 80039ee:	6823      	ldr	r3, [r4, #0]
 80039f0:	6922      	ldr	r2, [r4, #16]
 80039f2:	b2f6      	uxtb	r6, r6
 80039f4:	1a98      	subs	r0, r3, r2
 80039f6:	6963      	ldr	r3, [r4, #20]
 80039f8:	4637      	mov	r7, r6
 80039fa:	4283      	cmp	r3, r0
 80039fc:	dc04      	bgt.n	8003a08 <__swbuf_r+0x3a>
 80039fe:	4621      	mov	r1, r4
 8003a00:	4628      	mov	r0, r5
 8003a02:	f000 fd4f 	bl	80044a4 <_fflush_r>
 8003a06:	b9e0      	cbnz	r0, 8003a42 <__swbuf_r+0x74>
 8003a08:	68a3      	ldr	r3, [r4, #8]
 8003a0a:	3b01      	subs	r3, #1
 8003a0c:	60a3      	str	r3, [r4, #8]
 8003a0e:	6823      	ldr	r3, [r4, #0]
 8003a10:	1c5a      	adds	r2, r3, #1
 8003a12:	6022      	str	r2, [r4, #0]
 8003a14:	701e      	strb	r6, [r3, #0]
 8003a16:	6962      	ldr	r2, [r4, #20]
 8003a18:	1c43      	adds	r3, r0, #1
 8003a1a:	429a      	cmp	r2, r3
 8003a1c:	d004      	beq.n	8003a28 <__swbuf_r+0x5a>
 8003a1e:	89a3      	ldrh	r3, [r4, #12]
 8003a20:	07db      	lsls	r3, r3, #31
 8003a22:	d506      	bpl.n	8003a32 <__swbuf_r+0x64>
 8003a24:	2e0a      	cmp	r6, #10
 8003a26:	d104      	bne.n	8003a32 <__swbuf_r+0x64>
 8003a28:	4621      	mov	r1, r4
 8003a2a:	4628      	mov	r0, r5
 8003a2c:	f000 fd3a 	bl	80044a4 <_fflush_r>
 8003a30:	b938      	cbnz	r0, 8003a42 <__swbuf_r+0x74>
 8003a32:	4638      	mov	r0, r7
 8003a34:	bdf8      	pop	{r3, r4, r5, r6, r7, pc}
 8003a36:	4621      	mov	r1, r4
 8003a38:	4628      	mov	r0, r5
 8003a3a:	f000 f805 	bl	8003a48 <__swsetup_r>
 8003a3e:	2800      	cmp	r0, #0
 8003a40:	d0d5      	beq.n	80039ee <__swbuf_r+0x20>
 8003a42:	f04f 37ff 	mov.w	r7, #4294967295
 8003a46:	e7f4      	b.n	8003a32 <__swbuf_r+0x64>

08003a48 <__swsetup_r>:
 8003a48:	b538      	push	{r3, r4, r5, lr}
 8003a4a:	4b2a      	ldr	r3, [pc, #168]	; (8003af4 <__swsetup_r+0xac>)
 8003a4c:	4605      	mov	r5, r0
 8003a4e:	6818      	ldr	r0, [r3, #0]
 8003a50:	460c      	mov	r4, r1
 8003a52:	b118      	cbz	r0, 8003a5c <__swsetup_r+0x14>
 8003a54:	6a03      	ldr	r3, [r0, #32]
 8003a56:	b90b      	cbnz	r3, 8003a5c <__swsetup_r+0x14>
 8003a58:	f7ff fed2 	bl	8003800 <__sinit>
 8003a5c:	89a3      	ldrh	r3, [r4, #12]
 8003a5e:	f9b4 200c 	ldrsh.w	r2, [r4, #12]
 8003a62:	0718      	lsls	r0, r3, #28
 8003a64:	d422      	bmi.n	8003aac <__swsetup_r+0x64>
 8003a66:	06d9      	lsls	r1, r3, #27
 8003a68:	d407      	bmi.n	8003a7a <__swsetup_r+0x32>
 8003a6a:	2309      	movs	r3, #9
 8003a6c:	602b      	str	r3, [r5, #0]
 8003a6e:	f042 0340 	orr.w	r3, r2, #64	; 0x40
 8003a72:	f04f 30ff 	mov.w	r0, #4294967295
 8003a76:	81a3      	strh	r3, [r4, #12]
 8003a78:	e034      	b.n	8003ae4 <__swsetup_r+0x9c>
 8003a7a:	0758      	lsls	r0, r3, #29
 8003a7c:	d512      	bpl.n	8003aa4 <__swsetup_r+0x5c>
 8003a7e:	6b61      	ldr	r1, [r4, #52]	; 0x34
 8003a80:	b141      	cbz	r1, 8003a94 <__swsetup_r+0x4c>
 8003a82:	f104 0344 	add.w	r3, r4, #68	; 0x44
 8003a86:	4299      	cmp	r1, r3
 8003a88:	d002      	beq.n	8003a90 <__swsetup_r+0x48>
 8003a8a:	4628      	mov	r0, r5
 8003a8c:	f000 f8be 	bl	8003c0c <_free_r>
 8003a90:	2300      	movs	r3, #0
 8003a92:	6363      	str	r3, [r4, #52]	; 0x34
 8003a94:	89a3      	ldrh	r3, [r4, #12]
 8003a96:	f023 0324 	bic.w	r3, r3, #36	; 0x24
 8003a9a:	81a3      	strh	r3, [r4, #12]
 8003a9c:	2300      	movs	r3, #0
 8003a9e:	6063      	str	r3, [r4, #4]
 8003aa0:	6923      	ldr	r3, [r4, #16]
 8003aa2:	6023      	str	r3, [r4, #0]
 8003aa4:	89a3      	ldrh	r3, [r4, #12]
 8003aa6:	f043 0308 	orr.w	r3, r3, #8
 8003aaa:	81a3      	strh	r3, [r4, #12]
 8003aac:	6923      	ldr	r3, [r4, #16]
 8003aae:	b94b      	cbnz	r3, 8003ac4 <__swsetup_r+0x7c>
 8003ab0:	89a3      	ldrh	r3, [r4, #12]
 8003ab2:	f403 7320 	and.w	r3, r3, #640	; 0x280
 8003ab6:	f5b3 7f00 	cmp.w	r3, #512	; 0x200
 8003aba:	d003      	beq.n	8003ac4 <__swsetup_r+0x7c>
 8003abc:	4621      	mov	r1, r4
 8003abe:	4628      	mov	r0, r5
 8003ac0:	f000 fd3d 	bl	800453e <__smakebuf_r>
 8003ac4:	89a0      	ldrh	r0, [r4, #12]
 8003ac6:	f9b4 200c 	ldrsh.w	r2, [r4, #12]
 8003aca:	f010 0301 	ands.w	r3, r0, #1
 8003ace:	d00a      	beq.n	8003ae6 <__swsetup_r+0x9e>
 8003ad0:	2300      	movs	r3, #0
 8003ad2:	60a3      	str	r3, [r4, #8]
 8003ad4:	6963      	ldr	r3, [r4, #20]
 8003ad6:	425b      	negs	r3, r3
 8003ad8:	61a3      	str	r3, [r4, #24]
 8003ada:	6923      	ldr	r3, [r4, #16]
 8003adc:	b943      	cbnz	r3, 8003af0 <__swsetup_r+0xa8>
 8003ade:	f010 0080 	ands.w	r0, r0, #128	; 0x80
 8003ae2:	d1c4      	bne.n	8003a6e <__swsetup_r+0x26>
 8003ae4:	bd38      	pop	{r3, r4, r5, pc}
 8003ae6:	0781      	lsls	r1, r0, #30
 8003ae8:	bf58      	it	pl
 8003aea:	6963      	ldrpl	r3, [r4, #20]
 8003aec:	60a3      	str	r3, [r4, #8]
 8003aee:	e7f4      	b.n	8003ada <__swsetup_r+0x92>
 8003af0:	2000      	movs	r0, #0
 8003af2:	e7f7      	b.n	8003ae4 <__swsetup_r+0x9c>
 8003af4:	20000068 	.word	0x20000068

08003af8 <memset>:
 8003af8:	4603      	mov	r3, r0
 8003afa:	4402      	add	r2, r0
 8003afc:	4293      	cmp	r3, r2
 8003afe:	d100      	bne.n	8003b02 <memset+0xa>
 8003b00:	4770      	bx	lr
 8003b02:	f803 1b01 	strb.w	r1, [r3], #1
 8003b06:	e7f9      	b.n	8003afc <memset+0x4>

08003b08 <_close_r>:
 8003b08:	b538      	push	{r3, r4, r5, lr}
 8003b0a:	2300      	movs	r3, #0
 8003b0c:	4d05      	ldr	r5, [pc, #20]	; (8003b24 <_close_r+0x1c>)
 8003b0e:	4604      	mov	r4, r0
 8003b10:	4608      	mov	r0, r1
 8003b12:	602b      	str	r3, [r5, #0]
 8003b14:	f7fd fff2 	bl	8001afc <_close>
 8003b18:	1c43      	adds	r3, r0, #1
 8003b1a:	d102      	bne.n	8003b22 <_close_r+0x1a>
 8003b1c:	682b      	ldr	r3, [r5, #0]
 8003b1e:	b103      	cbz	r3, 8003b22 <_close_r+0x1a>
 8003b20:	6023      	str	r3, [r4, #0]
 8003b22:	bd38      	pop	{r3, r4, r5, pc}
 8003b24:	20000394 	.word	0x20000394

08003b28 <_lseek_r>:
 8003b28:	b538      	push	{r3, r4, r5, lr}
 8003b2a:	4604      	mov	r4, r0
 8003b2c:	4608      	mov	r0, r1
 8003b2e:	4611      	mov	r1, r2
 8003b30:	2200      	movs	r2, #0
 8003b32:	4d05      	ldr	r5, [pc, #20]	; (8003b48 <_lseek_r+0x20>)
 8003b34:	602a      	str	r2, [r5, #0]
 8003b36:	461a      	mov	r2, r3
 8003b38:	f7fd ffea 	bl	8001b10 <_lseek>
 8003b3c:	1c43      	adds	r3, r0, #1
 8003b3e:	d102      	bne.n	8003b46 <_lseek_r+0x1e>
 8003b40:	682b      	ldr	r3, [r5, #0]
 8003b42:	b103      	cbz	r3, 8003b46 <_lseek_r+0x1e>
 8003b44:	6023      	str	r3, [r4, #0]
 8003b46:	bd38      	pop	{r3, r4, r5, pc}
 8003b48:	20000394 	.word	0x20000394

08003b4c <_read_r>:
 8003b4c:	b538      	push	{r3, r4, r5, lr}
 8003b4e:	4604      	mov	r4, r0
 8003b50:	4608      	mov	r0, r1
 8003b52:	4611      	mov	r1, r2
 8003b54:	2200      	movs	r2, #0
 8003b56:	4d05      	ldr	r5, [pc, #20]	; (8003b6c <_read_r+0x20>)
 8003b58:	602a      	str	r2, [r5, #0]
 8003b5a:	461a      	mov	r2, r3
 8003b5c:	f7fd ffb2 	bl	8001ac4 <_read>
 8003b60:	1c43      	adds	r3, r0, #1
 8003b62:	d102      	bne.n	8003b6a <_read_r+0x1e>
 8003b64:	682b      	ldr	r3, [r5, #0]
 8003b66:	b103      	cbz	r3, 8003b6a <_read_r+0x1e>
 8003b68:	6023      	str	r3, [r4, #0]
 8003b6a:	bd38      	pop	{r3, r4, r5, pc}
 8003b6c:	20000394 	.word	0x20000394

08003b70 <_write_r>:
 8003b70:	b538      	push	{r3, r4, r5, lr}
 8003b72:	4604      	mov	r4, r0
 8003b74:	4608      	mov	r0, r1
 8003b76:	4611      	mov	r1, r2
 8003b78:	2200      	movs	r2, #0
 8003b7a:	4d05      	ldr	r5, [pc, #20]	; (8003b90 <_write_r+0x20>)
 8003b7c:	602a      	str	r2, [r5, #0]
 8003b7e:	461a      	mov	r2, r3
 8003b80:	f7fd ffae 	bl	8001ae0 <_write>
 8003b84:	1c43      	adds	r3, r0, #1
 8003b86:	d102      	bne.n	8003b8e <_write_r+0x1e>
 8003b88:	682b      	ldr	r3, [r5, #0]
 8003b8a:	b103      	cbz	r3, 8003b8e <_write_r+0x1e>
 8003b8c:	6023      	str	r3, [r4, #0]
 8003b8e:	bd38      	pop	{r3, r4, r5, pc}
 8003b90:	20000394 	.word	0x20000394

08003b94 <__errno>:
 8003b94:	4b01      	ldr	r3, [pc, #4]	; (8003b9c <__errno+0x8>)
 8003b96:	6818      	ldr	r0, [r3, #0]
 8003b98:	4770      	bx	lr
 8003b9a:	bf00      	nop
 8003b9c:	20000068 	.word	0x20000068

08003ba0 <__libc_init_array>:
 8003ba0:	b570      	push	{r4, r5, r6, lr}
 8003ba2:	2600      	movs	r6, #0
 8003ba4:	4d0c      	ldr	r5, [pc, #48]	; (8003bd8 <__libc_init_array+0x38>)
 8003ba6:	4c0d      	ldr	r4, [pc, #52]	; (8003bdc <__libc_init_array+0x3c>)
 8003ba8:	1b64      	subs	r4, r4, r5
 8003baa:	10a4      	asrs	r4, r4, #2
 8003bac:	42a6      	cmp	r6, r4
 8003bae:	d109      	bne.n	8003bc4 <__libc_init_array+0x24>
 8003bb0:	f000 fd42 	bl	8004638 <_init>
 8003bb4:	2600      	movs	r6, #0
 8003bb6:	4d0a      	ldr	r5, [pc, #40]	; (8003be0 <__libc_init_array+0x40>)
 8003bb8:	4c0a      	ldr	r4, [pc, #40]	; (8003be4 <__libc_init_array+0x44>)
 8003bba:	1b64      	subs	r4, r4, r5
 8003bbc:	10a4      	asrs	r4, r4, #2
 8003bbe:	42a6      	cmp	r6, r4
 8003bc0:	d105      	bne.n	8003bce <__libc_init_array+0x2e>
 8003bc2:	bd70      	pop	{r4, r5, r6, pc}
 8003bc4:	f855 3b04 	ldr.w	r3, [r5], #4
 8003bc8:	4798      	blx	r3
 8003bca:	3601      	adds	r6, #1
 8003bcc:	e7ee      	b.n	8003bac <__libc_init_array+0xc>
 8003bce:	f855 3b04 	ldr.w	r3, [r5], #4
 8003bd2:	4798      	blx	r3
 8003bd4:	3601      	adds	r6, #1
 8003bd6:	e7f2      	b.n	8003bbe <__libc_init_array+0x1e>
 8003bd8:	080046d0 	.word	0x080046d0
 8003bdc:	080046d0 	.word	0x080046d0
 8003be0:	080046d0 	.word	0x080046d0
 8003be4:	080046d4 	.word	0x080046d4

08003be8 <__retarget_lock_init_recursive>:
 8003be8:	4770      	bx	lr

08003bea <__retarget_lock_acquire_recursive>:
 8003bea:	4770      	bx	lr

08003bec <__retarget_lock_release_recursive>:
 8003bec:	4770      	bx	lr

08003bee <memcpy>:
 8003bee:	440a      	add	r2, r1
 8003bf0:	4291      	cmp	r1, r2
 8003bf2:	f100 33ff 	add.w	r3, r0, #4294967295
 8003bf6:	d100      	bne.n	8003bfa <memcpy+0xc>
 8003bf8:	4770      	bx	lr
 8003bfa:	b510      	push	{r4, lr}
 8003bfc:	f811 4b01 	ldrb.w	r4, [r1], #1
 8003c00:	4291      	cmp	r1, r2
 8003c02:	f803 4f01 	strb.w	r4, [r3, #1]!
 8003c06:	d1f9      	bne.n	8003bfc <memcpy+0xe>
 8003c08:	bd10      	pop	{r4, pc}
	...

08003c0c <_free_r>:
 8003c0c:	b538      	push	{r3, r4, r5, lr}
 8003c0e:	4605      	mov	r5, r0
 8003c10:	2900      	cmp	r1, #0
 8003c12:	d040      	beq.n	8003c96 <_free_r+0x8a>
 8003c14:	f851 3c04 	ldr.w	r3, [r1, #-4]
 8003c18:	1f0c      	subs	r4, r1, #4
 8003c1a:	2b00      	cmp	r3, #0
 8003c1c:	bfb8      	it	lt
 8003c1e:	18e4      	addlt	r4, r4, r3
 8003c20:	f000 f8dc 	bl	8003ddc <__malloc_lock>
 8003c24:	4a1c      	ldr	r2, [pc, #112]	; (8003c98 <_free_r+0x8c>)
 8003c26:	6813      	ldr	r3, [r2, #0]
 8003c28:	b933      	cbnz	r3, 8003c38 <_free_r+0x2c>
 8003c2a:	6063      	str	r3, [r4, #4]
 8003c2c:	6014      	str	r4, [r2, #0]
 8003c2e:	4628      	mov	r0, r5
 8003c30:	e8bd 4038 	ldmia.w	sp!, {r3, r4, r5, lr}
 8003c34:	f000 b8d8 	b.w	8003de8 <__malloc_unlock>
 8003c38:	42a3      	cmp	r3, r4
 8003c3a:	d908      	bls.n	8003c4e <_free_r+0x42>
 8003c3c:	6820      	ldr	r0, [r4, #0]
 8003c3e:	1821      	adds	r1, r4, r0
 8003c40:	428b      	cmp	r3, r1
 8003c42:	bf01      	itttt	eq
 8003c44:	6819      	ldreq	r1, [r3, #0]
 8003c46:	685b      	ldreq	r3, [r3, #4]
 8003c48:	1809      	addeq	r1, r1, r0
 8003c4a:	6021      	streq	r1, [r4, #0]
 8003c4c:	e7ed      	b.n	8003c2a <_free_r+0x1e>
 8003c4e:	461a      	mov	r2, r3
 8003c50:	685b      	ldr	r3, [r3, #4]
 8003c52:	b10b      	cbz	r3, 8003c58 <_free_r+0x4c>
 8003c54:	42a3      	cmp	r3, r4
 8003c56:	d9fa      	bls.n	8003c4e <_free_r+0x42>
 8003c58:	6811      	ldr	r1, [r2, #0]
 8003c5a:	1850      	adds	r0, r2, r1
 8003c5c:	42a0      	cmp	r0, r4
 8003c5e:	d10b      	bne.n	8003c78 <_free_r+0x6c>
 8003c60:	6820      	ldr	r0, [r4, #0]
 8003c62:	4401      	add	r1, r0
 8003c64:	1850      	adds	r0, r2, r1
 8003c66:	4283      	cmp	r3, r0
 8003c68:	6011      	str	r1, [r2, #0]
 8003c6a:	d1e0      	bne.n	8003c2e <_free_r+0x22>
 8003c6c:	6818      	ldr	r0, [r3, #0]
 8003c6e:	685b      	ldr	r3, [r3, #4]
 8003c70:	4408      	add	r0, r1
 8003c72:	6010      	str	r0, [r2, #0]
 8003c74:	6053      	str	r3, [r2, #4]
 8003c76:	e7da      	b.n	8003c2e <_free_r+0x22>
 8003c78:	d902      	bls.n	8003c80 <_free_r+0x74>
 8003c7a:	230c      	movs	r3, #12
 8003c7c:	602b      	str	r3, [r5, #0]
 8003c7e:	e7d6      	b.n	8003c2e <_free_r+0x22>
 8003c80:	6820      	ldr	r0, [r4, #0]
 8003c82:	1821      	adds	r1, r4, r0
 8003c84:	428b      	cmp	r3, r1
 8003c86:	bf01      	itttt	eq
 8003c88:	6819      	ldreq	r1, [r3, #0]
 8003c8a:	685b      	ldreq	r3, [r3, #4]
 8003c8c:	1809      	addeq	r1, r1, r0
 8003c8e:	6021      	streq	r1, [r4, #0]
 8003c90:	6063      	str	r3, [r4, #4]
 8003c92:	6054      	str	r4, [r2, #4]
 8003c94:	e7cb      	b.n	8003c2e <_free_r+0x22>
 8003c96:	bd38      	pop	{r3, r4, r5, pc}
 8003c98:	2000039c 	.word	0x2000039c

08003c9c <sbrk_aligned>:
 8003c9c:	b570      	push	{r4, r5, r6, lr}
 8003c9e:	4e0e      	ldr	r6, [pc, #56]	; (8003cd8 <sbrk_aligned+0x3c>)
 8003ca0:	460c      	mov	r4, r1
 8003ca2:	6831      	ldr	r1, [r6, #0]
 8003ca4:	4605      	mov	r5, r0
 8003ca6:	b911      	cbnz	r1, 8003cae <sbrk_aligned+0x12>
 8003ca8:	f000 fca8 	bl	80045fc <_sbrk_r>
 8003cac:	6030      	str	r0, [r6, #0]
 8003cae:	4621      	mov	r1, r4
 8003cb0:	4628      	mov	r0, r5
 8003cb2:	f000 fca3 	bl	80045fc <_sbrk_r>
 8003cb6:	1c43      	adds	r3, r0, #1
 8003cb8:	d00a      	beq.n	8003cd0 <sbrk_aligned+0x34>
 8003cba:	1cc4      	adds	r4, r0, #3
 8003cbc:	f024 0403 	bic.w	r4, r4, #3
 8003cc0:	42a0      	cmp	r0, r4
 8003cc2:	d007      	beq.n	8003cd4 <sbrk_aligned+0x38>
 8003cc4:	1a21      	subs	r1, r4, r0
 8003cc6:	4628      	mov	r0, r5
 8003cc8:	f000 fc98 	bl	80045fc <_sbrk_r>
 8003ccc:	3001      	adds	r0, #1
 8003cce:	d101      	bne.n	8003cd4 <sbrk_aligned+0x38>
 8003cd0:	f04f 34ff 	mov.w	r4, #4294967295
 8003cd4:	4620      	mov	r0, r4
 8003cd6:	bd70      	pop	{r4, r5, r6, pc}
 8003cd8:	200003a0 	.word	0x200003a0

08003cdc <_malloc_r>:
 8003cdc:	e92d 43f8 	stmdb	sp!, {r3, r4, r5, r6, r7, r8, r9, lr}
 8003ce0:	1ccd      	adds	r5, r1, #3
 8003ce2:	f025 0503 	bic.w	r5, r5, #3
 8003ce6:	3508      	adds	r5, #8
 8003ce8:	2d0c      	cmp	r5, #12
 8003cea:	bf38      	it	cc
 8003cec:	250c      	movcc	r5, #12
 8003cee:	2d00      	cmp	r5, #0
 8003cf0:	4607      	mov	r7, r0
 8003cf2:	db01      	blt.n	8003cf8 <_malloc_r+0x1c>
 8003cf4:	42a9      	cmp	r1, r5
 8003cf6:	d905      	bls.n	8003d04 <_malloc_r+0x28>
 8003cf8:	230c      	movs	r3, #12
 8003cfa:	2600      	movs	r6, #0
 8003cfc:	603b      	str	r3, [r7, #0]
 8003cfe:	4630      	mov	r0, r6
 8003d00:	e8bd 83f8 	ldmia.w	sp!, {r3, r4, r5, r6, r7, r8, r9, pc}
 8003d04:	f8df 80d0 	ldr.w	r8, [pc, #208]	; 8003dd8 <_malloc_r+0xfc>
 8003d08:	f000 f868 	bl	8003ddc <__malloc_lock>
 8003d0c:	f8d8 3000 	ldr.w	r3, [r8]
 8003d10:	461c      	mov	r4, r3
 8003d12:	bb5c      	cbnz	r4, 8003d6c <_malloc_r+0x90>
 8003d14:	4629      	mov	r1, r5
 8003d16:	4638      	mov	r0, r7
 8003d18:	f7ff ffc0 	bl	8003c9c <sbrk_aligned>
 8003d1c:	1c43      	adds	r3, r0, #1
 8003d1e:	4604      	mov	r4, r0
 8003d20:	d155      	bne.n	8003dce <_malloc_r+0xf2>
 8003d22:	f8d8 4000 	ldr.w	r4, [r8]
 8003d26:	4626      	mov	r6, r4
 8003d28:	2e00      	cmp	r6, #0
 8003d2a:	d145      	bne.n	8003db8 <_malloc_r+0xdc>
 8003d2c:	2c00      	cmp	r4, #0
 8003d2e:	d048      	beq.n	8003dc2 <_malloc_r+0xe6>
 8003d30:	6823      	ldr	r3, [r4, #0]
 8003d32:	4631      	mov	r1, r6
 8003d34:	4638      	mov	r0, r7
 8003d36:	eb04 0903 	add.w	r9, r4, r3
 8003d3a:	f000 fc5f 	bl	80045fc <_sbrk_r>
 8003d3e:	4581      	cmp	r9, r0
 8003d40:	d13f      	bne.n	8003dc2 <_malloc_r+0xe6>
 8003d42:	6821      	ldr	r1, [r4, #0]
 8003d44:	4638      	mov	r0, r7
 8003d46:	1a6d      	subs	r5, r5, r1
 8003d48:	4629      	mov	r1, r5
 8003d4a:	f7ff ffa7 	bl	8003c9c <sbrk_aligned>
 8003d4e:	3001      	adds	r0, #1
 8003d50:	d037      	beq.n	8003dc2 <_malloc_r+0xe6>
 8003d52:	6823      	ldr	r3, [r4, #0]
 8003d54:	442b      	add	r3, r5
 8003d56:	6023      	str	r3, [r4, #0]
 8003d58:	f8d8 3000 	ldr.w	r3, [r8]
 8003d5c:	2b00      	cmp	r3, #0
 8003d5e:	d038      	beq.n	8003dd2 <_malloc_r+0xf6>
 8003d60:	685a      	ldr	r2, [r3, #4]
 8003d62:	42a2      	cmp	r2, r4
 8003d64:	d12b      	bne.n	8003dbe <_malloc_r+0xe2>
 8003d66:	2200      	movs	r2, #0
 8003d68:	605a      	str	r2, [r3, #4]
 8003d6a:	e00f      	b.n	8003d8c <_malloc_r+0xb0>
 8003d6c:	6822      	ldr	r2, [r4, #0]
 8003d6e:	1b52      	subs	r2, r2, r5
 8003d70:	d41f      	bmi.n	8003db2 <_malloc_r+0xd6>
 8003d72:	2a0b      	cmp	r2, #11
 8003d74:	d917      	bls.n	8003da6 <_malloc_r+0xca>
 8003d76:	1961      	adds	r1, r4, r5
 8003d78:	42a3      	cmp	r3, r4
 8003d7a:	6025      	str	r5, [r4, #0]
 8003d7c:	bf18      	it	ne
 8003d7e:	6059      	strne	r1, [r3, #4]
 8003d80:	6863      	ldr	r3, [r4, #4]
 8003d82:	bf08      	it	eq
 8003d84:	f8c8 1000 	streq.w	r1, [r8]
 8003d88:	5162      	str	r2, [r4, r5]
 8003d8a:	604b      	str	r3, [r1, #4]
 8003d8c:	4638      	mov	r0, r7
 8003d8e:	f104 060b 	add.w	r6, r4, #11
 8003d92:	f000 f829 	bl	8003de8 <__malloc_unlock>
 8003d96:	f026 0607 	bic.w	r6, r6, #7
 8003d9a:	1d23      	adds	r3, r4, #4
 8003d9c:	1af2      	subs	r2, r6, r3
 8003d9e:	d0ae      	beq.n	8003cfe <_malloc_r+0x22>
 8003da0:	1b9b      	subs	r3, r3, r6
 8003da2:	50a3      	str	r3, [r4, r2]
 8003da4:	e7ab      	b.n	8003cfe <_malloc_r+0x22>
 8003da6:	42a3      	cmp	r3, r4
 8003da8:	6862      	ldr	r2, [r4, #4]
 8003daa:	d1dd      	bne.n	8003d68 <_malloc_r+0x8c>
 8003dac:	f8c8 2000 	str.w	r2, [r8]
 8003db0:	e7ec      	b.n	8003d8c <_malloc_r+0xb0>
 8003db2:	4623      	mov	r3, r4
 8003db4:	6864      	ldr	r4, [r4, #4]
 8003db6:	e7ac      	b.n	8003d12 <_malloc_r+0x36>
 8003db8:	4634      	mov	r4, r6
 8003dba:	6876      	ldr	r6, [r6, #4]
 8003dbc:	e7b4      	b.n	8003d28 <_malloc_r+0x4c>
 8003dbe:	4613      	mov	r3, r2
 8003dc0:	e7cc      	b.n	8003d5c <_malloc_r+0x80>
 8003dc2:	230c      	movs	r3, #12
 8003dc4:	4638      	mov	r0, r7
 8003dc6:	603b      	str	r3, [r7, #0]
 8003dc8:	f000 f80e 	bl	8003de8 <__malloc_unlock>
 8003dcc:	e797      	b.n	8003cfe <_malloc_r+0x22>
 8003dce:	6025      	str	r5, [r4, #0]
 8003dd0:	e7dc      	b.n	8003d8c <_malloc_r+0xb0>
 8003dd2:	605b      	str	r3, [r3, #4]
 8003dd4:	deff      	udf	#255	; 0xff
 8003dd6:	bf00      	nop
 8003dd8:	2000039c 	.word	0x2000039c

08003ddc <__malloc_lock>:
 8003ddc:	4801      	ldr	r0, [pc, #4]	; (8003de4 <__malloc_lock+0x8>)
 8003dde:	f7ff bf04 	b.w	8003bea <__retarget_lock_acquire_recursive>
 8003de2:	bf00      	nop
 8003de4:	20000398 	.word	0x20000398

08003de8 <__malloc_unlock>:
 8003de8:	4801      	ldr	r0, [pc, #4]	; (8003df0 <__malloc_unlock+0x8>)
 8003dea:	f7ff beff 	b.w	8003bec <__retarget_lock_release_recursive>
 8003dee:	bf00      	nop
 8003df0:	20000398 	.word	0x20000398

08003df4 <__sfputc_r>:
 8003df4:	6893      	ldr	r3, [r2, #8]
 8003df6:	b410      	push	{r4}
 8003df8:	3b01      	subs	r3, #1
 8003dfa:	2b00      	cmp	r3, #0
 8003dfc:	6093      	str	r3, [r2, #8]
 8003dfe:	da07      	bge.n	8003e10 <__sfputc_r+0x1c>
 8003e00:	6994      	ldr	r4, [r2, #24]
 8003e02:	42a3      	cmp	r3, r4
 8003e04:	db01      	blt.n	8003e0a <__sfputc_r+0x16>
 8003e06:	290a      	cmp	r1, #10
 8003e08:	d102      	bne.n	8003e10 <__sfputc_r+0x1c>
 8003e0a:	bc10      	pop	{r4}
 8003e0c:	f7ff bddf 	b.w	80039ce <__swbuf_r>
 8003e10:	6813      	ldr	r3, [r2, #0]
 8003e12:	1c58      	adds	r0, r3, #1
 8003e14:	6010      	str	r0, [r2, #0]
 8003e16:	7019      	strb	r1, [r3, #0]
 8003e18:	4608      	mov	r0, r1
 8003e1a:	bc10      	pop	{r4}
 8003e1c:	4770      	bx	lr

08003e1e <__sfputs_r>:
 8003e1e:	b5f8      	push	{r3, r4, r5, r6, r7, lr}
 8003e20:	4606      	mov	r6, r0
 8003e22:	460f      	mov	r7, r1
 8003e24:	4614      	mov	r4, r2
 8003e26:	18d5      	adds	r5, r2, r3
 8003e28:	42ac      	cmp	r4, r5
 8003e2a:	d101      	bne.n	8003e30 <__sfputs_r+0x12>
 8003e2c:	2000      	movs	r0, #0
 8003e2e:	e007      	b.n	8003e40 <__sfputs_r+0x22>
 8003e30:	463a      	mov	r2, r7
 8003e32:	4630      	mov	r0, r6
 8003e34:	f814 1b01 	ldrb.w	r1, [r4], #1
 8003e38:	f7ff ffdc 	bl	8003df4 <__sfputc_r>
 8003e3c:	1c43      	adds	r3, r0, #1
 8003e3e:	d1f3      	bne.n	8003e28 <__sfputs_r+0xa>
 8003e40:	bdf8      	pop	{r3, r4, r5, r6, r7, pc}
	...

08003e44 <_vfiprintf_r>:
 8003e44:	e92d 4ff0 	stmdb	sp!, {r4, r5, r6, r7, r8, r9, sl, fp, lr}
 8003e48:	460d      	mov	r5, r1
 8003e4a:	4614      	mov	r4, r2
 8003e4c:	4698      	mov	r8, r3
 8003e4e:	4606      	mov	r6, r0
 8003e50:	b09d      	sub	sp, #116	; 0x74
 8003e52:	b118      	cbz	r0, 8003e5c <_vfiprintf_r+0x18>
 8003e54:	6a03      	ldr	r3, [r0, #32]
 8003e56:	b90b      	cbnz	r3, 8003e5c <_vfiprintf_r+0x18>
 8003e58:	f7ff fcd2 	bl	8003800 <__sinit>
 8003e5c:	6e6b      	ldr	r3, [r5, #100]	; 0x64
 8003e5e:	07d9      	lsls	r1, r3, #31
 8003e60:	d405      	bmi.n	8003e6e <_vfiprintf_r+0x2a>
 8003e62:	89ab      	ldrh	r3, [r5, #12]
 8003e64:	059a      	lsls	r2, r3, #22
 8003e66:	d402      	bmi.n	8003e6e <_vfiprintf_r+0x2a>
 8003e68:	6da8      	ldr	r0, [r5, #88]	; 0x58
 8003e6a:	f7ff febe 	bl	8003bea <__retarget_lock_acquire_recursive>
 8003e6e:	89ab      	ldrh	r3, [r5, #12]
 8003e70:	071b      	lsls	r3, r3, #28
 8003e72:	d501      	bpl.n	8003e78 <_vfiprintf_r+0x34>
 8003e74:	692b      	ldr	r3, [r5, #16]
 8003e76:	b99b      	cbnz	r3, 8003ea0 <_vfiprintf_r+0x5c>
 8003e78:	4629      	mov	r1, r5
 8003e7a:	4630      	mov	r0, r6
 8003e7c:	f7ff fde4 	bl	8003a48 <__swsetup_r>
 8003e80:	b170      	cbz	r0, 8003ea0 <_vfiprintf_r+0x5c>
 8003e82:	6e6b      	ldr	r3, [r5, #100]	; 0x64
 8003e84:	07dc      	lsls	r4, r3, #31
 8003e86:	d504      	bpl.n	8003e92 <_vfiprintf_r+0x4e>
 8003e88:	f04f 30ff 	mov.w	r0, #4294967295
 8003e8c:	b01d      	add	sp, #116	; 0x74
 8003e8e:	e8bd 8ff0 	ldmia.w	sp!, {r4, r5, r6, r7, r8, r9, sl, fp, pc}
 8003e92:	89ab      	ldrh	r3, [r5, #12]
 8003e94:	0598      	lsls	r0, r3, #22
 8003e96:	d4f7      	bmi.n	8003e88 <_vfiprintf_r+0x44>
 8003e98:	6da8      	ldr	r0, [r5, #88]	; 0x58
 8003e9a:	f7ff fea7 	bl	8003bec <__retarget_lock_release_recursive>
 8003e9e:	e7f3      	b.n	8003e88 <_vfiprintf_r+0x44>
 8003ea0:	2300      	movs	r3, #0
 8003ea2:	9309      	str	r3, [sp, #36]	; 0x24
 8003ea4:	2320      	movs	r3, #32
 8003ea6:	f88d 3029 	strb.w	r3, [sp, #41]	; 0x29
 8003eaa:	2330      	movs	r3, #48	; 0x30
 8003eac:	f04f 0901 	mov.w	r9, #1
 8003eb0:	f8cd 800c 	str.w	r8, [sp, #12]
 8003eb4:	f8df 81ac 	ldr.w	r8, [pc, #428]	; 8004064 <_vfiprintf_r+0x220>
 8003eb8:	f88d 302a 	strb.w	r3, [sp, #42]	; 0x2a
 8003ebc:	4623      	mov	r3, r4
 8003ebe:	469a      	mov	sl, r3
 8003ec0:	f813 2b01 	ldrb.w	r2, [r3], #1
 8003ec4:	b10a      	cbz	r2, 8003eca <_vfiprintf_r+0x86>
 8003ec6:	2a25      	cmp	r2, #37	; 0x25
 8003ec8:	d1f9      	bne.n	8003ebe <_vfiprintf_r+0x7a>
 8003eca:	ebba 0b04 	subs.w	fp, sl, r4
 8003ece:	d00b      	beq.n	8003ee8 <_vfiprintf_r+0xa4>
 8003ed0:	465b      	mov	r3, fp
 8003ed2:	4622      	mov	r2, r4
 8003ed4:	4629      	mov	r1, r5
 8003ed6:	4630      	mov	r0, r6
 8003ed8:	f7ff ffa1 	bl	8003e1e <__sfputs_r>
 8003edc:	3001      	adds	r0, #1
 8003ede:	f000 80a9 	beq.w	8004034 <_vfiprintf_r+0x1f0>
 8003ee2:	9a09      	ldr	r2, [sp, #36]	; 0x24
 8003ee4:	445a      	add	r2, fp
 8003ee6:	9209      	str	r2, [sp, #36]	; 0x24
 8003ee8:	f89a 3000 	ldrb.w	r3, [sl]
 8003eec:	2b00      	cmp	r3, #0
 8003eee:	f000 80a1 	beq.w	8004034 <_vfiprintf_r+0x1f0>
 8003ef2:	2300      	movs	r3, #0
 8003ef4:	f04f 32ff 	mov.w	r2, #4294967295
 8003ef8:	e9cd 2305 	strd	r2, r3, [sp, #20]
 8003efc:	f10a 0a01 	add.w	sl, sl, #1
 8003f00:	9304      	str	r3, [sp, #16]
 8003f02:	9307      	str	r3, [sp, #28]
 8003f04:	f88d 3053 	strb.w	r3, [sp, #83]	; 0x53
 8003f08:	931a      	str	r3, [sp, #104]	; 0x68
 8003f0a:	4654      	mov	r4, sl
 8003f0c:	2205      	movs	r2, #5
 8003f0e:	f814 1b01 	ldrb.w	r1, [r4], #1
 8003f12:	4854      	ldr	r0, [pc, #336]	; (8004064 <_vfiprintf_r+0x220>)
 8003f14:	f000 fb82 	bl	800461c <memchr>
 8003f18:	9a04      	ldr	r2, [sp, #16]
 8003f1a:	b9d8      	cbnz	r0, 8003f54 <_vfiprintf_r+0x110>
 8003f1c:	06d1      	lsls	r1, r2, #27
 8003f1e:	bf44      	itt	mi
 8003f20:	2320      	movmi	r3, #32
 8003f22:	f88d 3053 	strbmi.w	r3, [sp, #83]	; 0x53
 8003f26:	0713      	lsls	r3, r2, #28
 8003f28:	bf44      	itt	mi
 8003f2a:	232b      	movmi	r3, #43	; 0x2b
 8003f2c:	f88d 3053 	strbmi.w	r3, [sp, #83]	; 0x53
 8003f30:	f89a 3000 	ldrb.w	r3, [sl]
 8003f34:	2b2a      	cmp	r3, #42	; 0x2a
 8003f36:	d015      	beq.n	8003f64 <_vfiprintf_r+0x120>
 8003f38:	4654      	mov	r4, sl
 8003f3a:	2000      	movs	r0, #0
 8003f3c:	f04f 0c0a 	mov.w	ip, #10
 8003f40:	9a07      	ldr	r2, [sp, #28]
 8003f42:	4621      	mov	r1, r4
 8003f44:	f811 3b01 	ldrb.w	r3, [r1], #1
 8003f48:	3b30      	subs	r3, #48	; 0x30
 8003f4a:	2b09      	cmp	r3, #9
 8003f4c:	d94d      	bls.n	8003fea <_vfiprintf_r+0x1a6>
 8003f4e:	b1b0      	cbz	r0, 8003f7e <_vfiprintf_r+0x13a>
 8003f50:	9207      	str	r2, [sp, #28]
 8003f52:	e014      	b.n	8003f7e <_vfiprintf_r+0x13a>
 8003f54:	eba0 0308 	sub.w	r3, r0, r8
 8003f58:	fa09 f303 	lsl.w	r3, r9, r3
 8003f5c:	4313      	orrs	r3, r2
 8003f5e:	46a2      	mov	sl, r4
 8003f60:	9304      	str	r3, [sp, #16]
 8003f62:	e7d2      	b.n	8003f0a <_vfiprintf_r+0xc6>
 8003f64:	9b03      	ldr	r3, [sp, #12]
 8003f66:	1d19      	adds	r1, r3, #4
 8003f68:	681b      	ldr	r3, [r3, #0]
 8003f6a:	9103      	str	r1, [sp, #12]
 8003f6c:	2b00      	cmp	r3, #0
 8003f6e:	bfbb      	ittet	lt
 8003f70:	425b      	neglt	r3, r3
 8003f72:	f042 0202 	orrlt.w	r2, r2, #2
 8003f76:	9307      	strge	r3, [sp, #28]
 8003f78:	9307      	strlt	r3, [sp, #28]
 8003f7a:	bfb8      	it	lt
 8003f7c:	9204      	strlt	r2, [sp, #16]
 8003f7e:	7823      	ldrb	r3, [r4, #0]
 8003f80:	2b2e      	cmp	r3, #46	; 0x2e
 8003f82:	d10c      	bne.n	8003f9e <_vfiprintf_r+0x15a>
 8003f84:	7863      	ldrb	r3, [r4, #1]
 8003f86:	2b2a      	cmp	r3, #42	; 0x2a
 8003f88:	d134      	bne.n	8003ff4 <_vfiprintf_r+0x1b0>
 8003f8a:	9b03      	ldr	r3, [sp, #12]
 8003f8c:	3402      	adds	r4, #2
 8003f8e:	1d1a      	adds	r2, r3, #4
 8003f90:	681b      	ldr	r3, [r3, #0]
 8003f92:	9203      	str	r2, [sp, #12]
 8003f94:	2b00      	cmp	r3, #0
 8003f96:	bfb8      	it	lt
 8003f98:	f04f 33ff 	movlt.w	r3, #4294967295
 8003f9c:	9305      	str	r3, [sp, #20]
 8003f9e:	f8df a0c8 	ldr.w	sl, [pc, #200]	; 8004068 <_vfiprintf_r+0x224>
 8003fa2:	2203      	movs	r2, #3
 8003fa4:	4650      	mov	r0, sl
 8003fa6:	7821      	ldrb	r1, [r4, #0]
 8003fa8:	f000 fb38 	bl	800461c <memchr>
 8003fac:	b138      	cbz	r0, 8003fbe <_vfiprintf_r+0x17a>
 8003fae:	2240      	movs	r2, #64	; 0x40
 8003fb0:	9b04      	ldr	r3, [sp, #16]
 8003fb2:	eba0 000a 	sub.w	r0, r0, sl
 8003fb6:	4082      	lsls	r2, r0
 8003fb8:	4313      	orrs	r3, r2
 8003fba:	3401      	adds	r4, #1
 8003fbc:	9304      	str	r3, [sp, #16]
 8003fbe:	f814 1b01 	ldrb.w	r1, [r4], #1
 8003fc2:	2206      	movs	r2, #6
 8003fc4:	4829      	ldr	r0, [pc, #164]	; (800406c <_vfiprintf_r+0x228>)
 8003fc6:	f88d 1028 	strb.w	r1, [sp, #40]	; 0x28
 8003fca:	f000 fb27 	bl	800461c <memchr>
 8003fce:	2800      	cmp	r0, #0
 8003fd0:	d03f      	beq.n	8004052 <_vfiprintf_r+0x20e>
 8003fd2:	4b27      	ldr	r3, [pc, #156]	; (8004070 <_vfiprintf_r+0x22c>)
 8003fd4:	bb1b      	cbnz	r3, 800401e <_vfiprintf_r+0x1da>
 8003fd6:	9b03      	ldr	r3, [sp, #12]
 8003fd8:	3307      	adds	r3, #7
 8003fda:	f023 0307 	bic.w	r3, r3, #7
 8003fde:	3308      	adds	r3, #8
 8003fe0:	9303      	str	r3, [sp, #12]
 8003fe2:	9b09      	ldr	r3, [sp, #36]	; 0x24
 8003fe4:	443b      	add	r3, r7
 8003fe6:	9309      	str	r3, [sp, #36]	; 0x24
 8003fe8:	e768      	b.n	8003ebc <_vfiprintf_r+0x78>
 8003fea:	460c      	mov	r4, r1
 8003fec:	2001      	movs	r0, #1
 8003fee:	fb0c 3202 	mla	r2, ip, r2, r3
 8003ff2:	e7a6      	b.n	8003f42 <_vfiprintf_r+0xfe>
 8003ff4:	2300      	movs	r3, #0
 8003ff6:	f04f 0c0a 	mov.w	ip, #10
 8003ffa:	4619      	mov	r1, r3
 8003ffc:	3401      	adds	r4, #1
 8003ffe:	9305      	str	r3, [sp, #20]
 8004000:	4620      	mov	r0, r4
 8004002:	f810 2b01 	ldrb.w	r2, [r0], #1
 8004006:	3a30      	subs	r2, #48	; 0x30
 8004008:	2a09      	cmp	r2, #9
 800400a:	d903      	bls.n	8004014 <_vfiprintf_r+0x1d0>
 800400c:	2b00      	cmp	r3, #0
 800400e:	d0c6      	beq.n	8003f9e <_vfiprintf_r+0x15a>
 8004010:	9105      	str	r1, [sp, #20]
 8004012:	e7c4      	b.n	8003f9e <_vfiprintf_r+0x15a>
 8004014:	4604      	mov	r4, r0
 8004016:	2301      	movs	r3, #1
 8004018:	fb0c 2101 	mla	r1, ip, r1, r2
 800401c:	e7f0      	b.n	8004000 <_vfiprintf_r+0x1bc>
 800401e:	ab03      	add	r3, sp, #12
 8004020:	9300      	str	r3, [sp, #0]
 8004022:	462a      	mov	r2, r5
 8004024:	4630      	mov	r0, r6
 8004026:	4b13      	ldr	r3, [pc, #76]	; (8004074 <_vfiprintf_r+0x230>)
 8004028:	a904      	add	r1, sp, #16
 800402a:	f3af 8000 	nop.w
 800402e:	4607      	mov	r7, r0
 8004030:	1c78      	adds	r0, r7, #1
 8004032:	d1d6      	bne.n	8003fe2 <_vfiprintf_r+0x19e>
 8004034:	6e6b      	ldr	r3, [r5, #100]	; 0x64
 8004036:	07d9      	lsls	r1, r3, #31
 8004038:	d405      	bmi.n	8004046 <_vfiprintf_r+0x202>
 800403a:	89ab      	ldrh	r3, [r5, #12]
 800403c:	059a      	lsls	r2, r3, #22
 800403e:	d402      	bmi.n	8004046 <_vfiprintf_r+0x202>
 8004040:	6da8      	ldr	r0, [r5, #88]	; 0x58
 8004042:	f7ff fdd3 	bl	8003bec <__retarget_lock_release_recursive>
 8004046:	89ab      	ldrh	r3, [r5, #12]
 8004048:	065b      	lsls	r3, r3, #25
 800404a:	f53f af1d 	bmi.w	8003e88 <_vfiprintf_r+0x44>
 800404e:	9809      	ldr	r0, [sp, #36]	; 0x24
 8004050:	e71c      	b.n	8003e8c <_vfiprintf_r+0x48>
 8004052:	ab03      	add	r3, sp, #12
 8004054:	9300      	str	r3, [sp, #0]
 8004056:	462a      	mov	r2, r5
 8004058:	4630      	mov	r0, r6
 800405a:	4b06      	ldr	r3, [pc, #24]	; (8004074 <_vfiprintf_r+0x230>)
 800405c:	a904      	add	r1, sp, #16
 800405e:	f000 f87d 	bl	800415c <_printf_i>
 8004062:	e7e4      	b.n	800402e <_vfiprintf_r+0x1ea>
 8004064:	0800469a 	.word	0x0800469a
 8004068:	080046a0 	.word	0x080046a0
 800406c:	080046a4 	.word	0x080046a4
 8004070:	00000000 	.word	0x00000000
 8004074:	08003e1f 	.word	0x08003e1f

08004078 <_printf_common>:
 8004078:	e92d 47f0 	stmdb	sp!, {r4, r5, r6, r7, r8, r9, sl, lr}
 800407c:	4616      	mov	r6, r2
 800407e:	4699      	mov	r9, r3
 8004080:	688a      	ldr	r2, [r1, #8]
 8004082:	690b      	ldr	r3, [r1, #16]
 8004084:	4607      	mov	r7, r0
 8004086:	4293      	cmp	r3, r2
 8004088:	bfb8      	it	lt
 800408a:	4613      	movlt	r3, r2
 800408c:	6033      	str	r3, [r6, #0]
 800408e:	f891 2043 	ldrb.w	r2, [r1, #67]	; 0x43
 8004092:	460c      	mov	r4, r1
 8004094:	f8dd 8020 	ldr.w	r8, [sp, #32]
 8004098:	b10a      	cbz	r2, 800409e <_printf_common+0x26>
 800409a:	3301      	adds	r3, #1
 800409c:	6033      	str	r3, [r6, #0]
 800409e:	6823      	ldr	r3, [r4, #0]
 80040a0:	0699      	lsls	r1, r3, #26
 80040a2:	bf42      	ittt	mi
 80040a4:	6833      	ldrmi	r3, [r6, #0]
 80040a6:	3302      	addmi	r3, #2
 80040a8:	6033      	strmi	r3, [r6, #0]
 80040aa:	6825      	ldr	r5, [r4, #0]
 80040ac:	f015 0506 	ands.w	r5, r5, #6
 80040b0:	d106      	bne.n	80040c0 <_printf_common+0x48>
 80040b2:	f104 0a19 	add.w	sl, r4, #25
 80040b6:	68e3      	ldr	r3, [r4, #12]
 80040b8:	6832      	ldr	r2, [r6, #0]
 80040ba:	1a9b      	subs	r3, r3, r2
 80040bc:	42ab      	cmp	r3, r5
 80040be:	dc2b      	bgt.n	8004118 <_printf_common+0xa0>
 80040c0:	f894 2043 	ldrb.w	r2, [r4, #67]	; 0x43
 80040c4:	1e13      	subs	r3, r2, #0
 80040c6:	6822      	ldr	r2, [r4, #0]
 80040c8:	bf18      	it	ne
 80040ca:	2301      	movne	r3, #1
 80040cc:	0692      	lsls	r2, r2, #26
 80040ce:	d430      	bmi.n	8004132 <_printf_common+0xba>
 80040d0:	4649      	mov	r1, r9
 80040d2:	4638      	mov	r0, r7
 80040d4:	f104 0243 	add.w	r2, r4, #67	; 0x43
 80040d8:	47c0      	blx	r8
 80040da:	3001      	adds	r0, #1
 80040dc:	d023      	beq.n	8004126 <_printf_common+0xae>
 80040de:	6823      	ldr	r3, [r4, #0]
 80040e0:	6922      	ldr	r2, [r4, #16]
 80040e2:	f003 0306 	and.w	r3, r3, #6
 80040e6:	2b04      	cmp	r3, #4
 80040e8:	bf14      	ite	ne
 80040ea:	2500      	movne	r5, #0
 80040ec:	6833      	ldreq	r3, [r6, #0]
 80040ee:	f04f 0600 	mov.w	r6, #0
 80040f2:	bf08      	it	eq
 80040f4:	68e5      	ldreq	r5, [r4, #12]
 80040f6:	f104 041a 	add.w	r4, r4, #26
 80040fa:	bf08      	it	eq
 80040fc:	1aed      	subeq	r5, r5, r3
 80040fe:	f854 3c12 	ldr.w	r3, [r4, #-18]
 8004102:	bf08      	it	eq
 8004104:	ea25 75e5 	biceq.w	r5, r5, r5, asr #31
 8004108:	4293      	cmp	r3, r2
 800410a:	bfc4      	itt	gt
 800410c:	1a9b      	subgt	r3, r3, r2
 800410e:	18ed      	addgt	r5, r5, r3
 8004110:	42b5      	cmp	r5, r6
 8004112:	d11a      	bne.n	800414a <_printf_common+0xd2>
 8004114:	2000      	movs	r0, #0
 8004116:	e008      	b.n	800412a <_printf_common+0xb2>
 8004118:	2301      	movs	r3, #1
 800411a:	4652      	mov	r2, sl
 800411c:	4649      	mov	r1, r9
 800411e:	4638      	mov	r0, r7
 8004120:	47c0      	blx	r8
 8004122:	3001      	adds	r0, #1
 8004124:	d103      	bne.n	800412e <_printf_common+0xb6>
 8004126:	f04f 30ff 	mov.w	r0, #4294967295
 800412a:	e8bd 87f0 	ldmia.w	sp!, {r4, r5, r6, r7, r8, r9, sl, pc}
 800412e:	3501      	adds	r5, #1
 8004130:	e7c1      	b.n	80040b6 <_printf_common+0x3e>
 8004132:	2030      	movs	r0, #48	; 0x30
 8004134:	18e1      	adds	r1, r4, r3
 8004136:	f881 0043 	strb.w	r0, [r1, #67]	; 0x43
 800413a:	1c5a      	adds	r2, r3, #1
 800413c:	f894 1045 	ldrb.w	r1, [r4, #69]	; 0x45
 8004140:	4422      	add	r2, r4
 8004142:	3302      	adds	r3, #2
 8004144:	f882 1043 	strb.w	r1, [r2, #67]	; 0x43
 8004148:	e7c2      	b.n	80040d0 <_printf_common+0x58>
 800414a:	2301      	movs	r3, #1
 800414c:	4622      	mov	r2, r4
 800414e:	4649      	mov	r1, r9
 8004150:	4638      	mov	r0, r7
 8004152:	47c0      	blx	r8
 8004154:	3001      	adds	r0, #1
 8004156:	d0e6      	beq.n	8004126 <_printf_common+0xae>
 8004158:	3601      	adds	r6, #1
 800415a:	e7d9      	b.n	8004110 <_printf_common+0x98>

0800415c <_printf_i>:
 800415c:	e92d 47ff 	stmdb	sp!, {r0, r1, r2, r3, r4, r5, r6, r7, r8, r9, sl, lr}
 8004160:	7e0f      	ldrb	r7, [r1, #24]
 8004162:	4691      	mov	r9, r2
 8004164:	2f78      	cmp	r7, #120	; 0x78
 8004166:	4680      	mov	r8, r0
 8004168:	460c      	mov	r4, r1
 800416a:	469a      	mov	sl, r3
 800416c:	9d0c      	ldr	r5, [sp, #48]	; 0x30
 800416e:	f101 0243 	add.w	r2, r1, #67	; 0x43
 8004172:	d807      	bhi.n	8004184 <_printf_i+0x28>
 8004174:	2f62      	cmp	r7, #98	; 0x62
 8004176:	d80a      	bhi.n	800418e <_printf_i+0x32>
 8004178:	2f00      	cmp	r7, #0
 800417a:	f000 80d5 	beq.w	8004328 <_printf_i+0x1cc>
 800417e:	2f58      	cmp	r7, #88	; 0x58
 8004180:	f000 80c1 	beq.w	8004306 <_printf_i+0x1aa>
 8004184:	f104 0542 	add.w	r5, r4, #66	; 0x42
 8004188:	f884 7042 	strb.w	r7, [r4, #66]	; 0x42
 800418c:	e03a      	b.n	8004204 <_printf_i+0xa8>
 800418e:	f1a7 0363 	sub.w	r3, r7, #99	; 0x63
 8004192:	2b15      	cmp	r3, #21
 8004194:	d8f6      	bhi.n	8004184 <_printf_i+0x28>
 8004196:	a101      	add	r1, pc, #4	; (adr r1, 800419c <_printf_i+0x40>)
 8004198:	f851 f023 	ldr.w	pc, [r1, r3, lsl #2]
 800419c:	080041f5 	.word	0x080041f5
 80041a0:	08004209 	.word	0x08004209
 80041a4:	08004185 	.word	0x08004185
 80041a8:	08004185 	.word	0x08004185
 80041ac:	08004185 	.word	0x08004185
 80041b0:	08004185 	.word	0x08004185
 80041b4:	08004209 	.word	0x08004209
 80041b8:	08004185 	.word	0x08004185
 80041bc:	08004185 	.word	0x08004185
 80041c0:	08004185 	.word	0x08004185
 80041c4:	08004185 	.word	0x08004185
 80041c8:	0800430f 	.word	0x0800430f
 80041cc:	08004235 	.word	0x08004235
 80041d0:	080042c9 	.word	0x080042c9
 80041d4:	08004185 	.word	0x08004185
 80041d8:	08004185 	.word	0x08004185
 80041dc:	08004331 	.word	0x08004331
 80041e0:	08004185 	.word	0x08004185
 80041e4:	08004235 	.word	0x08004235
 80041e8:	08004185 	.word	0x08004185
 80041ec:	08004185 	.word	0x08004185
 80041f0:	080042d1 	.word	0x080042d1
 80041f4:	682b      	ldr	r3, [r5, #0]
 80041f6:	1d1a      	adds	r2, r3, #4
 80041f8:	681b      	ldr	r3, [r3, #0]
 80041fa:	602a      	str	r2, [r5, #0]
 80041fc:	f104 0542 	add.w	r5, r4, #66	; 0x42
 8004200:	f884 3042 	strb.w	r3, [r4, #66]	; 0x42
 8004204:	2301      	movs	r3, #1
 8004206:	e0a0      	b.n	800434a <_printf_i+0x1ee>
 8004208:	6820      	ldr	r0, [r4, #0]
 800420a:	682b      	ldr	r3, [r5, #0]
 800420c:	0607      	lsls	r7, r0, #24
 800420e:	f103 0104 	add.w	r1, r3, #4
 8004212:	6029      	str	r1, [r5, #0]
 8004214:	d501      	bpl.n	800421a <_printf_i+0xbe>
 8004216:	681e      	ldr	r6, [r3, #0]
 8004218:	e003      	b.n	8004222 <_printf_i+0xc6>
 800421a:	0646      	lsls	r6, r0, #25
 800421c:	d5fb      	bpl.n	8004216 <_printf_i+0xba>
 800421e:	f9b3 6000 	ldrsh.w	r6, [r3]
 8004222:	2e00      	cmp	r6, #0
 8004224:	da03      	bge.n	800422e <_printf_i+0xd2>
 8004226:	232d      	movs	r3, #45	; 0x2d
 8004228:	4276      	negs	r6, r6
 800422a:	f884 3043 	strb.w	r3, [r4, #67]	; 0x43
 800422e:	230a      	movs	r3, #10
 8004230:	4859      	ldr	r0, [pc, #356]	; (8004398 <_printf_i+0x23c>)
 8004232:	e012      	b.n	800425a <_printf_i+0xfe>
 8004234:	682b      	ldr	r3, [r5, #0]
 8004236:	6820      	ldr	r0, [r4, #0]
 8004238:	1d19      	adds	r1, r3, #4
 800423a:	6029      	str	r1, [r5, #0]
 800423c:	0605      	lsls	r5, r0, #24
 800423e:	d501      	bpl.n	8004244 <_printf_i+0xe8>
 8004240:	681e      	ldr	r6, [r3, #0]
 8004242:	e002      	b.n	800424a <_printf_i+0xee>
 8004244:	0641      	lsls	r1, r0, #25
 8004246:	d5fb      	bpl.n	8004240 <_printf_i+0xe4>
 8004248:	881e      	ldrh	r6, [r3, #0]
 800424a:	2f6f      	cmp	r7, #111	; 0x6f
 800424c:	bf0c      	ite	eq
 800424e:	2308      	moveq	r3, #8
 8004250:	230a      	movne	r3, #10
 8004252:	4851      	ldr	r0, [pc, #324]	; (8004398 <_printf_i+0x23c>)
 8004254:	2100      	movs	r1, #0
 8004256:	f884 1043 	strb.w	r1, [r4, #67]	; 0x43
 800425a:	6865      	ldr	r5, [r4, #4]
 800425c:	2d00      	cmp	r5, #0
 800425e:	bfa8      	it	ge
 8004260:	6821      	ldrge	r1, [r4, #0]
 8004262:	60a5      	str	r5, [r4, #8]
 8004264:	bfa4      	itt	ge
 8004266:	f021 0104 	bicge.w	r1, r1, #4
 800426a:	6021      	strge	r1, [r4, #0]
 800426c:	b90e      	cbnz	r6, 8004272 <_printf_i+0x116>
 800426e:	2d00      	cmp	r5, #0
 8004270:	d04b      	beq.n	800430a <_printf_i+0x1ae>
 8004272:	4615      	mov	r5, r2
 8004274:	fbb6 f1f3 	udiv	r1, r6, r3
 8004278:	fb03 6711 	mls	r7, r3, r1, r6
 800427c:	5dc7      	ldrb	r7, [r0, r7]
 800427e:	f805 7d01 	strb.w	r7, [r5, #-1]!
 8004282:	4637      	mov	r7, r6
 8004284:	42bb      	cmp	r3, r7
 8004286:	460e      	mov	r6, r1
 8004288:	d9f4      	bls.n	8004274 <_printf_i+0x118>
 800428a:	2b08      	cmp	r3, #8
 800428c:	d10b      	bne.n	80042a6 <_printf_i+0x14a>
 800428e:	6823      	ldr	r3, [r4, #0]
 8004290:	07de      	lsls	r6, r3, #31
 8004292:	d508      	bpl.n	80042a6 <_printf_i+0x14a>
 8004294:	6923      	ldr	r3, [r4, #16]
 8004296:	6861      	ldr	r1, [r4, #4]
 8004298:	4299      	cmp	r1, r3
 800429a:	bfde      	ittt	le
 800429c:	2330      	movle	r3, #48	; 0x30
 800429e:	f805 3c01 	strble.w	r3, [r5, #-1]
 80042a2:	f105 35ff 	addle.w	r5, r5, #4294967295
 80042a6:	1b52      	subs	r2, r2, r5
 80042a8:	6122      	str	r2, [r4, #16]
 80042aa:	464b      	mov	r3, r9
 80042ac:	4621      	mov	r1, r4
 80042ae:	4640      	mov	r0, r8
 80042b0:	f8cd a000 	str.w	sl, [sp]
 80042b4:	aa03      	add	r2, sp, #12
 80042b6:	f7ff fedf 	bl	8004078 <_printf_common>
 80042ba:	3001      	adds	r0, #1
 80042bc:	d14a      	bne.n	8004354 <_printf_i+0x1f8>
 80042be:	f04f 30ff 	mov.w	r0, #4294967295
 80042c2:	b004      	add	sp, #16
 80042c4:	e8bd 87f0 	ldmia.w	sp!, {r4, r5, r6, r7, r8, r9, sl, pc}
 80042c8:	6823      	ldr	r3, [r4, #0]
 80042ca:	f043 0320 	orr.w	r3, r3, #32
 80042ce:	6023      	str	r3, [r4, #0]
 80042d0:	2778      	movs	r7, #120	; 0x78
 80042d2:	4832      	ldr	r0, [pc, #200]	; (800439c <_printf_i+0x240>)
 80042d4:	f884 7045 	strb.w	r7, [r4, #69]	; 0x45
 80042d8:	6823      	ldr	r3, [r4, #0]
 80042da:	6829      	ldr	r1, [r5, #0]
 80042dc:	061f      	lsls	r7, r3, #24
 80042de:	f851 6b04 	ldr.w	r6, [r1], #4
 80042e2:	d402      	bmi.n	80042ea <_printf_i+0x18e>
 80042e4:	065f      	lsls	r7, r3, #25
 80042e6:	bf48      	it	mi
 80042e8:	b2b6      	uxthmi	r6, r6
 80042ea:	07df      	lsls	r7, r3, #31
 80042ec:	bf48      	it	mi
 80042ee:	f043 0320 	orrmi.w	r3, r3, #32
 80042f2:	6029      	str	r1, [r5, #0]
 80042f4:	bf48      	it	mi
 80042f6:	6023      	strmi	r3, [r4, #0]
 80042f8:	b91e      	cbnz	r6, 8004302 <_printf_i+0x1a6>
 80042fa:	6823      	ldr	r3, [r4, #0]
 80042fc:	f023 0320 	bic.w	r3, r3, #32
 8004300:	6023      	str	r3, [r4, #0]
 8004302:	2310      	movs	r3, #16
 8004304:	e7a6      	b.n	8004254 <_printf_i+0xf8>
 8004306:	4824      	ldr	r0, [pc, #144]	; (8004398 <_printf_i+0x23c>)
 8004308:	e7e4      	b.n	80042d4 <_printf_i+0x178>
 800430a:	4615      	mov	r5, r2
 800430c:	e7bd      	b.n	800428a <_printf_i+0x12e>
 800430e:	682b      	ldr	r3, [r5, #0]
 8004310:	6826      	ldr	r6, [r4, #0]
 8004312:	1d18      	adds	r0, r3, #4
 8004314:	6961      	ldr	r1, [r4, #20]
 8004316:	6028      	str	r0, [r5, #0]
 8004318:	0635      	lsls	r5, r6, #24
 800431a:	681b      	ldr	r3, [r3, #0]
 800431c:	d501      	bpl.n	8004322 <_printf_i+0x1c6>
 800431e:	6019      	str	r1, [r3, #0]
 8004320:	e002      	b.n	8004328 <_printf_i+0x1cc>
 8004322:	0670      	lsls	r0, r6, #25
 8004324:	d5fb      	bpl.n	800431e <_printf_i+0x1c2>
 8004326:	8019      	strh	r1, [r3, #0]
 8004328:	2300      	movs	r3, #0
 800432a:	4615      	mov	r5, r2
 800432c:	6123      	str	r3, [r4, #16]
 800432e:	e7bc      	b.n	80042aa <_printf_i+0x14e>
 8004330:	682b      	ldr	r3, [r5, #0]
 8004332:	2100      	movs	r1, #0
 8004334:	1d1a      	adds	r2, r3, #4
 8004336:	602a      	str	r2, [r5, #0]
 8004338:	681d      	ldr	r5, [r3, #0]
 800433a:	6862      	ldr	r2, [r4, #4]
 800433c:	4628      	mov	r0, r5
 800433e:	f000 f96d 	bl	800461c <memchr>
 8004342:	b108      	cbz	r0, 8004348 <_printf_i+0x1ec>
 8004344:	1b40      	subs	r0, r0, r5
 8004346:	6060      	str	r0, [r4, #4]
 8004348:	6863      	ldr	r3, [r4, #4]
 800434a:	6123      	str	r3, [r4, #16]
 800434c:	2300      	movs	r3, #0
 800434e:	f884 3043 	strb.w	r3, [r4, #67]	; 0x43
 8004352:	e7aa      	b.n	80042aa <_printf_i+0x14e>
 8004354:	462a      	mov	r2, r5
 8004356:	4649      	mov	r1, r9
 8004358:	4640      	mov	r0, r8
 800435a:	6923      	ldr	r3, [r4, #16]
 800435c:	47d0      	blx	sl
 800435e:	3001      	adds	r0, #1
 8004360:	d0ad      	beq.n	80042be <_printf_i+0x162>
 8004362:	6823      	ldr	r3, [r4, #0]
 8004364:	079b      	lsls	r3, r3, #30
 8004366:	d413      	bmi.n	8004390 <_printf_i+0x234>
 8004368:	68e0      	ldr	r0, [r4, #12]
 800436a:	9b03      	ldr	r3, [sp, #12]
 800436c:	4298      	cmp	r0, r3
 800436e:	bfb8      	it	lt
 8004370:	4618      	movlt	r0, r3
 8004372:	e7a6      	b.n	80042c2 <_printf_i+0x166>
 8004374:	2301      	movs	r3, #1
 8004376:	4632      	mov	r2, r6
 8004378:	4649      	mov	r1, r9
 800437a:	4640      	mov	r0, r8
 800437c:	47d0      	blx	sl
 800437e:	3001      	adds	r0, #1
 8004380:	d09d      	beq.n	80042be <_printf_i+0x162>
 8004382:	3501      	adds	r5, #1
 8004384:	68e3      	ldr	r3, [r4, #12]
 8004386:	9903      	ldr	r1, [sp, #12]
 8004388:	1a5b      	subs	r3, r3, r1
 800438a:	42ab      	cmp	r3, r5
 800438c:	dcf2      	bgt.n	8004374 <_printf_i+0x218>
 800438e:	e7eb      	b.n	8004368 <_printf_i+0x20c>
 8004390:	2500      	movs	r5, #0
 8004392:	f104 0619 	add.w	r6, r4, #25
 8004396:	e7f5      	b.n	8004384 <_printf_i+0x228>
 8004398:	080046ab 	.word	0x080046ab
 800439c:	080046bc 	.word	0x080046bc

080043a0 <__sflush_r>:
 80043a0:	898a      	ldrh	r2, [r1, #12]
 80043a2:	b5f8      	push	{r3, r4, r5, r6, r7, lr}
 80043a4:	4605      	mov	r5, r0
 80043a6:	0710      	lsls	r0, r2, #28
 80043a8:	460c      	mov	r4, r1
 80043aa:	d457      	bmi.n	800445c <__sflush_r+0xbc>
 80043ac:	684b      	ldr	r3, [r1, #4]
 80043ae:	2b00      	cmp	r3, #0
 80043b0:	dc04      	bgt.n	80043bc <__sflush_r+0x1c>
 80043b2:	6c0b      	ldr	r3, [r1, #64]	; 0x40
 80043b4:	2b00      	cmp	r3, #0
 80043b6:	dc01      	bgt.n	80043bc <__sflush_r+0x1c>
 80043b8:	2000      	movs	r0, #0
 80043ba:	bdf8      	pop	{r3, r4, r5, r6, r7, pc}
 80043bc:	6ae6      	ldr	r6, [r4, #44]	; 0x2c
 80043be:	2e00      	cmp	r6, #0
 80043c0:	d0fa      	beq.n	80043b8 <__sflush_r+0x18>
 80043c2:	2300      	movs	r3, #0
 80043c4:	f412 5280 	ands.w	r2, r2, #4096	; 0x1000
 80043c8:	682f      	ldr	r7, [r5, #0]
 80043ca:	6a21      	ldr	r1, [r4, #32]
 80043cc:	602b      	str	r3, [r5, #0]
 80043ce:	d032      	beq.n	8004436 <__sflush_r+0x96>
 80043d0:	6d60      	ldr	r0, [r4, #84]	; 0x54
 80043d2:	89a3      	ldrh	r3, [r4, #12]
 80043d4:	075a      	lsls	r2, r3, #29
 80043d6:	d505      	bpl.n	80043e4 <__sflush_r+0x44>
 80043d8:	6863      	ldr	r3, [r4, #4]
 80043da:	1ac0      	subs	r0, r0, r3
 80043dc:	6b63      	ldr	r3, [r4, #52]	; 0x34
 80043de:	b10b      	cbz	r3, 80043e4 <__sflush_r+0x44>
 80043e0:	6c23      	ldr	r3, [r4, #64]	; 0x40
 80043e2:	1ac0      	subs	r0, r0, r3
 80043e4:	2300      	movs	r3, #0
 80043e6:	4602      	mov	r2, r0
 80043e8:	6ae6      	ldr	r6, [r4, #44]	; 0x2c
 80043ea:	4628      	mov	r0, r5
 80043ec:	6a21      	ldr	r1, [r4, #32]
 80043ee:	47b0      	blx	r6
 80043f0:	1c43      	adds	r3, r0, #1
 80043f2:	89a3      	ldrh	r3, [r4, #12]
 80043f4:	d106      	bne.n	8004404 <__sflush_r+0x64>
 80043f6:	6829      	ldr	r1, [r5, #0]
 80043f8:	291d      	cmp	r1, #29
 80043fa:	d82b      	bhi.n	8004454 <__sflush_r+0xb4>
 80043fc:	4a28      	ldr	r2, [pc, #160]	; (80044a0 <__sflush_r+0x100>)
 80043fe:	410a      	asrs	r2, r1
 8004400:	07d6      	lsls	r6, r2, #31
 8004402:	d427      	bmi.n	8004454 <__sflush_r+0xb4>
 8004404:	2200      	movs	r2, #0
 8004406:	6062      	str	r2, [r4, #4]
 8004408:	6922      	ldr	r2, [r4, #16]
 800440a:	04d9      	lsls	r1, r3, #19
 800440c:	6022      	str	r2, [r4, #0]
 800440e:	d504      	bpl.n	800441a <__sflush_r+0x7a>
 8004410:	1c42      	adds	r2, r0, #1
 8004412:	d101      	bne.n	8004418 <__sflush_r+0x78>
 8004414:	682b      	ldr	r3, [r5, #0]
 8004416:	b903      	cbnz	r3, 800441a <__sflush_r+0x7a>
 8004418:	6560      	str	r0, [r4, #84]	; 0x54
 800441a:	6b61      	ldr	r1, [r4, #52]	; 0x34
 800441c:	602f      	str	r7, [r5, #0]
 800441e:	2900      	cmp	r1, #0
 8004420:	d0ca      	beq.n	80043b8 <__sflush_r+0x18>
 8004422:	f104 0344 	add.w	r3, r4, #68	; 0x44
 8004426:	4299      	cmp	r1, r3
 8004428:	d002      	beq.n	8004430 <__sflush_r+0x90>
 800442a:	4628      	mov	r0, r5
 800442c:	f7ff fbee 	bl	8003c0c <_free_r>
 8004430:	2000      	movs	r0, #0
 8004432:	6360      	str	r0, [r4, #52]	; 0x34
 8004434:	e7c1      	b.n	80043ba <__sflush_r+0x1a>
 8004436:	2301      	movs	r3, #1
 8004438:	4628      	mov	r0, r5
 800443a:	47b0      	blx	r6
 800443c:	1c41      	adds	r1, r0, #1
 800443e:	d1c8      	bne.n	80043d2 <__sflush_r+0x32>
 8004440:	682b      	ldr	r3, [r5, #0]
 8004442:	2b00      	cmp	r3, #0
 8004444:	d0c5      	beq.n	80043d2 <__sflush_r+0x32>
 8004446:	2b1d      	cmp	r3, #29
 8004448:	d001      	beq.n	800444e <__sflush_r+0xae>
 800444a:	2b16      	cmp	r3, #22
 800444c:	d101      	bne.n	8004452 <__sflush_r+0xb2>
 800444e:	602f      	str	r7, [r5, #0]
 8004450:	e7b2      	b.n	80043b8 <__sflush_r+0x18>
 8004452:	89a3      	ldrh	r3, [r4, #12]
 8004454:	f043 0340 	orr.w	r3, r3, #64	; 0x40
 8004458:	81a3      	strh	r3, [r4, #12]
 800445a:	e7ae      	b.n	80043ba <__sflush_r+0x1a>
 800445c:	690f      	ldr	r7, [r1, #16]
 800445e:	2f00      	cmp	r7, #0
 8004460:	d0aa      	beq.n	80043b8 <__sflush_r+0x18>
 8004462:	0793      	lsls	r3, r2, #30
 8004464:	bf18      	it	ne
 8004466:	2300      	movne	r3, #0
 8004468:	680e      	ldr	r6, [r1, #0]
 800446a:	bf08      	it	eq
 800446c:	694b      	ldreq	r3, [r1, #20]
 800446e:	1bf6      	subs	r6, r6, r7
 8004470:	600f      	str	r7, [r1, #0]
 8004472:	608b      	str	r3, [r1, #8]
 8004474:	2e00      	cmp	r6, #0
 8004476:	dd9f      	ble.n	80043b8 <__sflush_r+0x18>
 8004478:	4633      	mov	r3, r6
 800447a:	463a      	mov	r2, r7
 800447c:	4628      	mov	r0, r5
 800447e:	6a21      	ldr	r1, [r4, #32]
 8004480:	f8d4 c028 	ldr.w	ip, [r4, #40]	; 0x28
 8004484:	47e0      	blx	ip
 8004486:	2800      	cmp	r0, #0
 8004488:	dc06      	bgt.n	8004498 <__sflush_r+0xf8>
 800448a:	89a3      	ldrh	r3, [r4, #12]
 800448c:	f04f 30ff 	mov.w	r0, #4294967295
 8004490:	f043 0340 	orr.w	r3, r3, #64	; 0x40
 8004494:	81a3      	strh	r3, [r4, #12]
 8004496:	e790      	b.n	80043ba <__sflush_r+0x1a>
 8004498:	4407      	add	r7, r0
 800449a:	1a36      	subs	r6, r6, r0
 800449c:	e7ea      	b.n	8004474 <__sflush_r+0xd4>
 800449e:	bf00      	nop
 80044a0:	dfbffffe 	.word	0xdfbffffe

080044a4 <_fflush_r>:
 80044a4:	b538      	push	{r3, r4, r5, lr}
 80044a6:	690b      	ldr	r3, [r1, #16]
 80044a8:	4605      	mov	r5, r0
 80044aa:	460c      	mov	r4, r1
 80044ac:	b913      	cbnz	r3, 80044b4 <_fflush_r+0x10>
 80044ae:	2500      	movs	r5, #0
 80044b0:	4628      	mov	r0, r5
 80044b2:	bd38      	pop	{r3, r4, r5, pc}
 80044b4:	b118      	cbz	r0, 80044be <_fflush_r+0x1a>
 80044b6:	6a03      	ldr	r3, [r0, #32]
 80044b8:	b90b      	cbnz	r3, 80044be <_fflush_r+0x1a>
 80044ba:	f7ff f9a1 	bl	8003800 <__sinit>
 80044be:	f9b4 300c 	ldrsh.w	r3, [r4, #12]
 80044c2:	2b00      	cmp	r3, #0
 80044c4:	d0f3      	beq.n	80044ae <_fflush_r+0xa>
 80044c6:	6e62      	ldr	r2, [r4, #100]	; 0x64
 80044c8:	07d0      	lsls	r0, r2, #31
 80044ca:	d404      	bmi.n	80044d6 <_fflush_r+0x32>
 80044cc:	0599      	lsls	r1, r3, #22
 80044ce:	d402      	bmi.n	80044d6 <_fflush_r+0x32>
 80044d0:	6da0      	ldr	r0, [r4, #88]	; 0x58
 80044d2:	f7ff fb8a 	bl	8003bea <__retarget_lock_acquire_recursive>
 80044d6:	4628      	mov	r0, r5
 80044d8:	4621      	mov	r1, r4
 80044da:	f7ff ff61 	bl	80043a0 <__sflush_r>
 80044de:	6e63      	ldr	r3, [r4, #100]	; 0x64
 80044e0:	4605      	mov	r5, r0
 80044e2:	07da      	lsls	r2, r3, #31
 80044e4:	d4e4      	bmi.n	80044b0 <_fflush_r+0xc>
 80044e6:	89a3      	ldrh	r3, [r4, #12]
 80044e8:	059b      	lsls	r3, r3, #22
 80044ea:	d4e1      	bmi.n	80044b0 <_fflush_r+0xc>
 80044ec:	6da0      	ldr	r0, [r4, #88]	; 0x58
 80044ee:	f7ff fb7d 	bl	8003bec <__retarget_lock_release_recursive>
 80044f2:	e7dd      	b.n	80044b0 <_fflush_r+0xc>

080044f4 <__swhatbuf_r>:
 80044f4:	b570      	push	{r4, r5, r6, lr}
 80044f6:	460c      	mov	r4, r1
 80044f8:	f9b1 100e 	ldrsh.w	r1, [r1, #14]
 80044fc:	4615      	mov	r5, r2
 80044fe:	2900      	cmp	r1, #0
 8004500:	461e      	mov	r6, r3
 8004502:	b096      	sub	sp, #88	; 0x58
 8004504:	da0c      	bge.n	8004520 <__swhatbuf_r+0x2c>
 8004506:	89a3      	ldrh	r3, [r4, #12]
 8004508:	2100      	movs	r1, #0
 800450a:	f013 0f80 	tst.w	r3, #128	; 0x80
 800450e:	bf0c      	ite	eq
 8004510:	f44f 6380 	moveq.w	r3, #1024	; 0x400
 8004514:	2340      	movne	r3, #64	; 0x40
 8004516:	2000      	movs	r0, #0
 8004518:	6031      	str	r1, [r6, #0]
 800451a:	602b      	str	r3, [r5, #0]
 800451c:	b016      	add	sp, #88	; 0x58
 800451e:	bd70      	pop	{r4, r5, r6, pc}
 8004520:	466a      	mov	r2, sp
 8004522:	f000 f849 	bl	80045b8 <_fstat_r>
 8004526:	2800      	cmp	r0, #0
 8004528:	dbed      	blt.n	8004506 <__swhatbuf_r+0x12>
 800452a:	9901      	ldr	r1, [sp, #4]
 800452c:	f401 4170 	and.w	r1, r1, #61440	; 0xf000
 8004530:	f5a1 5300 	sub.w	r3, r1, #8192	; 0x2000
 8004534:	4259      	negs	r1, r3
 8004536:	4159      	adcs	r1, r3
 8004538:	f44f 6380 	mov.w	r3, #1024	; 0x400
 800453c:	e7eb      	b.n	8004516 <__swhatbuf_r+0x22>

0800453e <__smakebuf_r>:
 800453e:	898b      	ldrh	r3, [r1, #12]
 8004540:	b573      	push	{r0, r1, r4, r5, r6, lr}
 8004542:	079d      	lsls	r5, r3, #30
 8004544:	4606      	mov	r6, r0
 8004546:	460c      	mov	r4, r1
 8004548:	d507      	bpl.n	800455a <__smakebuf_r+0x1c>
 800454a:	f104 0347 	add.w	r3, r4, #71	; 0x47
 800454e:	6023      	str	r3, [r4, #0]
 8004550:	6123      	str	r3, [r4, #16]
 8004552:	2301      	movs	r3, #1
 8004554:	6163      	str	r3, [r4, #20]
 8004556:	b002      	add	sp, #8
 8004558:	bd70      	pop	{r4, r5, r6, pc}
 800455a:	466a      	mov	r2, sp
 800455c:	ab01      	add	r3, sp, #4
 800455e:	f7ff ffc9 	bl	80044f4 <__swhatbuf_r>
 8004562:	9900      	ldr	r1, [sp, #0]
 8004564:	4605      	mov	r5, r0
 8004566:	4630      	mov	r0, r6
 8004568:	f7ff fbb8 	bl	8003cdc <_malloc_r>
 800456c:	b948      	cbnz	r0, 8004582 <__smakebuf_r+0x44>
 800456e:	f9b4 300c 	ldrsh.w	r3, [r4, #12]
 8004572:	059a      	lsls	r2, r3, #22
 8004574:	d4ef      	bmi.n	8004556 <__smakebuf_r+0x18>
 8004576:	f023 0303 	bic.w	r3, r3, #3
 800457a:	f043 0302 	orr.w	r3, r3, #2
 800457e:	81a3      	strh	r3, [r4, #12]
 8004580:	e7e3      	b.n	800454a <__smakebuf_r+0xc>
 8004582:	89a3      	ldrh	r3, [r4, #12]
 8004584:	6020      	str	r0, [r4, #0]
 8004586:	f043 0380 	orr.w	r3, r3, #128	; 0x80
 800458a:	81a3      	strh	r3, [r4, #12]
 800458c:	9b00      	ldr	r3, [sp, #0]
 800458e:	6120      	str	r0, [r4, #16]
 8004590:	6163      	str	r3, [r4, #20]
 8004592:	9b01      	ldr	r3, [sp, #4]
 8004594:	b15b      	cbz	r3, 80045ae <__smakebuf_r+0x70>
 8004596:	4630      	mov	r0, r6
 8004598:	f9b4 100e 	ldrsh.w	r1, [r4, #14]
 800459c:	f000 f81e 	bl	80045dc <_isatty_r>
 80045a0:	b128      	cbz	r0, 80045ae <__smakebuf_r+0x70>
 80045a2:	89a3      	ldrh	r3, [r4, #12]
 80045a4:	f023 0303 	bic.w	r3, r3, #3
 80045a8:	f043 0301 	orr.w	r3, r3, #1
 80045ac:	81a3      	strh	r3, [r4, #12]
 80045ae:	89a3      	ldrh	r3, [r4, #12]
 80045b0:	431d      	orrs	r5, r3
 80045b2:	81a5      	strh	r5, [r4, #12]
 80045b4:	e7cf      	b.n	8004556 <__smakebuf_r+0x18>
	...

080045b8 <_fstat_r>:
 80045b8:	b538      	push	{r3, r4, r5, lr}
 80045ba:	2300      	movs	r3, #0
 80045bc:	4d06      	ldr	r5, [pc, #24]	; (80045d8 <_fstat_r+0x20>)
 80045be:	4604      	mov	r4, r0
 80045c0:	4608      	mov	r0, r1
 80045c2:	4611      	mov	r1, r2
 80045c4:	602b      	str	r3, [r5, #0]
 80045c6:	f7fd fa9c 	bl	8001b02 <_fstat>
 80045ca:	1c43      	adds	r3, r0, #1
 80045cc:	d102      	bne.n	80045d4 <_fstat_r+0x1c>
 80045ce:	682b      	ldr	r3, [r5, #0]
 80045d0:	b103      	cbz	r3, 80045d4 <_fstat_r+0x1c>
 80045d2:	6023      	str	r3, [r4, #0]
 80045d4:	bd38      	pop	{r3, r4, r5, pc}
 80045d6:	bf00      	nop
 80045d8:	20000394 	.word	0x20000394

080045dc <_isatty_r>:
 80045dc:	b538      	push	{r3, r4, r5, lr}
 80045de:	2300      	movs	r3, #0
 80045e0:	4d05      	ldr	r5, [pc, #20]	; (80045f8 <_isatty_r+0x1c>)
 80045e2:	4604      	mov	r4, r0
 80045e4:	4608      	mov	r0, r1
 80045e6:	602b      	str	r3, [r5, #0]
 80045e8:	f7fd fa90 	bl	8001b0c <_isatty>
 80045ec:	1c43      	adds	r3, r0, #1
 80045ee:	d102      	bne.n	80045f6 <_isatty_r+0x1a>
 80045f0:	682b      	ldr	r3, [r5, #0]
 80045f2:	b103      	cbz	r3, 80045f6 <_isatty_r+0x1a>
 80045f4:	6023      	str	r3, [r4, #0]
 80045f6:	bd38      	pop	{r3, r4, r5, pc}
 80045f8:	20000394 	.word	0x20000394

080045fc <_sbrk_r>:
 80045fc:	b538      	push	{r3, r4, r5, lr}
 80045fe:	2300      	movs	r3, #0
 8004600:	4d05      	ldr	r5, [pc, #20]	; (8004618 <_sbrk_r+0x1c>)
 8004602:	4604      	mov	r4, r0
 8004604:	4608      	mov	r0, r1
 8004606:	602b      	str	r3, [r5, #0]
 8004608:	f7fd fa84 	bl	8001b14 <_sbrk>
 800460c:	1c43      	adds	r3, r0, #1
 800460e:	d102      	bne.n	8004616 <_sbrk_r+0x1a>
 8004610:	682b      	ldr	r3, [r5, #0]
 8004612:	b103      	cbz	r3, 8004616 <_sbrk_r+0x1a>
 8004614:	6023      	str	r3, [r4, #0]
 8004616:	bd38      	pop	{r3, r4, r5, pc}
 8004618:	20000394 	.word	0x20000394

0800461c <memchr>:
 800461c:	4603      	mov	r3, r0
 800461e:	b510      	push	{r4, lr}
 8004620:	b2c9      	uxtb	r1, r1
 8004622:	4402      	add	r2, r0
 8004624:	4293      	cmp	r3, r2
 8004626:	4618      	mov	r0, r3
 8004628:	d101      	bne.n	800462e <memchr+0x12>
 800462a:	2000      	movs	r0, #0
 800462c:	e003      	b.n	8004636 <memchr+0x1a>
 800462e:	7804      	ldrb	r4, [r0, #0]
 8004630:	3301      	adds	r3, #1
 8004632:	428c      	cmp	r4, r1
 8004634:	d1f6      	bne.n	8004624 <memchr+0x8>
 8004636:	bd10      	pop	{r4, pc}

08004638 <_init>:
 8004638:	b5f8      	push	{r3, r4, r5, r6, r7, lr}
 800463a:	bf00      	nop
 800463c:	bcf8      	pop	{r3, r4, r5, r6, r7}
 800463e:	bc08      	pop	{r3}
 8004640:	469e      	mov	lr, r3
 8004642:	4770      	bx	lr

08004644 <_fini>:
 8004644:	b5f8      	push	{r3, r4, r5, r6, r7, lr}
 8004646:	bf00      	nop
 8004648:	bcf8      	pop	{r3, r4, r5, r6, r7}
 800464a:	bc08      	pop	{r3}
 800464c:	469e      	mov	lr, r3
 800464e:	4770      	bx	lr
